///////////////////////////////////////////////////////////////////////////////
//
// IAR C/C++ Compiler V10.20.1.5333 for 8051              19/Sep/2018  15:21:28
// Copyright 2004-2018 IAR Systems AB.
// Evaluation license - IAR Embedded Workbench for 8051, Evaluation version 10.20
//
//    Core               =  plain
//    Code model         =  banked
//    Data model         =  large
//    Calling convention =  xdata reentrant
//    Constant location  =  data_rom
//    Dptr setup         =  1,16
//                          
//    Source file        =  
//        C:\Users\Re\Documents\ZStack\ZStack-CC2530-2.3.1\Projects\zstack\Samples\SampleApp\Source\Coordinator.c
//    Command line       =  
//        -f C:\Users\Re\AppData\Local\Temp\EW41A8.tmp
//        (C:\Users\Re\Documents\ZStack\ZStack-CC2530-2.3.1\Projects\zstack\Samples\SampleApp\Source\Coordinator.c
//        -D ZTOOL_P1 -D MT_TASK -D MT_SYS_FUNC -D MT_ZDO_FUNC -D
//        LCD_SUPPORTED=DEBUG -lC
//        C:\Users\Re\Documents\ZStack\ZStack-CC2530-2.3.1\Projects\zstack\Samples\SampleApp\CC2530DB\CoordinatorEB\List
//        -lA
//        C:\Users\Re\Documents\ZStack\ZStack-CC2530-2.3.1\Projects\zstack\Samples\SampleApp\CC2530DB\CoordinatorEB\List
//        --diag_suppress Pe001,Pa010 -o
//        C:\Users\Re\Documents\ZStack\ZStack-CC2530-2.3.1\Projects\zstack\Samples\SampleApp\CC2530DB\CoordinatorEB\Obj
//        -e --debug --core=plain --dptr=16,1 --data_model=large
//        --code_model=banked --calling_convention=xdata_reentrant
//        --place_constants=data_rom --nr_virtual_regs 8 -f
//        C:\Users\Re\Documents\ZStack\ZStack-CC2530-2.3.1\Projects\zstack\Samples\SampleApp\CC2530DB\..\..\..\Tools\CC2530DB\f8wCoord.cfg
//        (-DCPU32MHZ -DROOT=__near_func -DMAC_CFG_APP_PENDING_QUEUE=TRUE
//        -DMAC_CFG_TX_DATA_MAX=5 -DMAC_CFG_TX_MAX=8 -DMAC_CFG_RX_MAX=5
//        -DZDO_COORDINATOR -DRTR_NWK) -f
//        C:\Users\Re\Documents\ZStack\ZStack-CC2530-2.3.1\Projects\zstack\Samples\SampleApp\CC2530DB\..\..\..\Tools\CC2530DB\f8wConfig.cfg
//        (-DSECURE=1 -DZG_SECURE_DYNAMIC=1 -DREFLECTOR
//        -DDEFAULT_CHANLIST=0x00000800 -DZDAPP_CONFIG_PAN_ID=0xFFFF
//        -DNWK_START_DELAY=100 -DEXTENDED_JOINING_RANDOM_MASK=0x007F
//        -DBEACON_REQUEST_DELAY=100 -DBEACON_REQ_DELAY_MASK=0x00FF
//        -DLINK_STATUS_JITTER_MASK=0x007F -DROUTE_EXPIRY_TIME=30
//        -DAPSC_ACK_WAIT_DURATION_POLLED=3000 -DNWK_INDIRECT_MSG_TIMEOUT=7
//        -DMAX_RREQ_ENTRIES=8 -DAPSC_MAX_FRAME_RETRIES=3
//        -DNWK_MAX_DATA_RETRIES=2 -DMAX_POLL_FAILURE_RETRIES=2 -DMAX_BCAST=9
//        -DAPS_MAX_GROUPS=16 -DMAX_RTG_ENTRIES=40 -DNWK_MAX_BINDING_ENTRIES=4
//        -DMAX_BINDING_CLUSTER_IDS=4 "-DDEFAULT_KEY={0x03, 0x05, 0x04, 0x06,
//        0x05, 0x03, 0x04, 0x0F, 0x00, 0x02, 0x04, 0x06, 0x08, 0x0A, 0x0C,
//        0x0D}" -DMAC_MAX_FRAME_SIZE=116 -DZDNWKMGR_MIN_TRANSMISSIONS=20
//        "-DCONST=const __code" -DGENERIC=__generic -DRFD_RCVC_ALWAYS_ON=FALSE
//        -DPOLL_RATE=1000 -DQUEUED_POLL_RATE=100 -DRESPONSE_POLL_RATE=100
//        -DREJOIN_POLL_RATE=440) -I
//        C:\Users\Re\Documents\ZStack\ZStack-CC2530-2.3.1\Projects\zstack\Samples\SampleApp\CC2530DB\
//        -I
//        C:\Users\Re\Documents\ZStack\ZStack-CC2530-2.3.1\Projects\zstack\Samples\SampleApp\CC2530DB\..\SOURCE\
//        -I
//        C:\Users\Re\Documents\ZStack\ZStack-CC2530-2.3.1\Projects\zstack\Samples\SampleApp\CC2530DB\..\..\..\ZMAIN\TI2530DB\
//        -I
//        C:\Users\Re\Documents\ZStack\ZStack-CC2530-2.3.1\Projects\zstack\Samples\SampleApp\CC2530DB\..\..\..\..\..\COMPONENTS\MT\
//        -I
//        C:\Users\Re\Documents\ZStack\ZStack-CC2530-2.3.1\Projects\zstack\Samples\SampleApp\CC2530DB\..\..\..\..\..\COMPONENTS\HAL\INCLUDE\
//        -I
//        C:\Users\Re\Documents\ZStack\ZStack-CC2530-2.3.1\Projects\zstack\Samples\SampleApp\CC2530DB\..\..\..\..\..\COMPONENTS\HAL\TARGET\CC2530EB\
//        -I
//        C:\Users\Re\Documents\ZStack\ZStack-CC2530-2.3.1\Projects\zstack\Samples\SampleApp\CC2530DB\..\..\..\..\..\COMPONENTS\OSAL\MCU\CCSOC\
//        -I
//        C:\Users\Re\Documents\ZStack\ZStack-CC2530-2.3.1\Projects\zstack\Samples\SampleApp\CC2530DB\..\..\..\..\..\COMPONENTS\OSAL\INCLUDE\
//        -I
//        C:\Users\Re\Documents\ZStack\ZStack-CC2530-2.3.1\Projects\zstack\Samples\SampleApp\CC2530DB\..\..\..\..\..\COMPONENTS\STACK\AF\
//        -I
//        C:\Users\Re\Documents\ZStack\ZStack-CC2530-2.3.1\Projects\zstack\Samples\SampleApp\CC2530DB\..\..\..\..\..\COMPONENTS\STACK\NWK\
//        -I
//        C:\Users\Re\Documents\ZStack\ZStack-CC2530-2.3.1\Projects\zstack\Samples\SampleApp\CC2530DB\..\..\..\..\..\COMPONENTS\STACK\SEC\
//        -I
//        C:\Users\Re\Documents\ZStack\ZStack-CC2530-2.3.1\Projects\zstack\Samples\SampleApp\CC2530DB\..\..\..\..\..\COMPONENTS\STACK\SAPI\
//        -I
//        C:\Users\Re\Documents\ZStack\ZStack-CC2530-2.3.1\Projects\zstack\Samples\SampleApp\CC2530DB\..\..\..\..\..\COMPONENTS\STACK\SYS\
//        -I
//        C:\Users\Re\Documents\ZStack\ZStack-CC2530-2.3.1\Projects\zstack\Samples\SampleApp\CC2530DB\..\..\..\..\..\COMPONENTS\STACK\ZDO\
//        -I
//        C:\Users\Re\Documents\ZStack\ZStack-CC2530-2.3.1\Projects\zstack\Samples\SampleApp\CC2530DB\..\..\..\..\..\COMPONENTS\ZMAC\F8W\
//        -I
//        C:\Users\Re\Documents\ZStack\ZStack-CC2530-2.3.1\Projects\zstack\Samples\SampleApp\CC2530DB\..\..\..\..\..\COMPONENTS\ZMAC\
//        -I
//        C:\Users\Re\Documents\ZStack\ZStack-CC2530-2.3.1\Projects\zstack\Samples\SampleApp\CC2530DB\..\..\..\..\..\COMPONENTS\SERVICES\SADDR\
//        -I
//        C:\Users\Re\Documents\ZStack\ZStack-CC2530-2.3.1\Projects\zstack\Samples\SampleApp\CC2530DB\..\..\..\..\..\COMPONENTS\SERVICES\SDATA\
//        -I
//        C:\Users\Re\Documents\ZStack\ZStack-CC2530-2.3.1\Projects\zstack\Samples\SampleApp\CC2530DB\..\..\..\..\..\COMPONENTS\MAC\INCLUDE\
//        -I
//        C:\Users\Re\Documents\ZStack\ZStack-CC2530-2.3.1\Projects\zstack\Samples\SampleApp\CC2530DB\..\..\..\..\..\COMPONENTS\MAC\HIGH_LEVEL\
//        -I
//        C:\Users\Re\Documents\ZStack\ZStack-CC2530-2.3.1\Projects\zstack\Samples\SampleApp\CC2530DB\..\..\..\..\..\COMPONENTS\MAC\LOW_LEVEL\srf04\
//        -I
//        C:\Users\Re\Documents\ZStack\ZStack-CC2530-2.3.1\Projects\zstack\Samples\SampleApp\CC2530DB\..\..\..\..\..\COMPONENTS\MAC\LOW_LEVEL\srf04\SINGLE_CHIP\
//        -Ohz --require_prototypes)
//    Locale             =  English_AUS.1252
//    List file          =  
//        C:\Users\Re\Documents\ZStack\ZStack-CC2530-2.3.1\Projects\zstack\Samples\SampleApp\CC2530DB\CoordinatorEB\List\Coordinator.s51
//
///////////////////////////////////////////////////////////////////////////////

        NAME Coordinator

        RTMODEL "__SystemLibrary", "CLib"
        RTMODEL "__calling_convention", "xdata_reentrant"
        RTMODEL "__code_model", "banked"
        RTMODEL "__core", "plain"
        RTMODEL "__data_model", "large"
        RTMODEL "__dptr_size", "16"
        RTMODEL "__extended_stack", "disabled"
        RTMODEL "__iar_require _formatted_write", ""
        RTMODEL "__location_for_constants", "data"
        RTMODEL "__number_of_dptrs", "1"
        RTMODEL "__register_banks", "*"
        RTMODEL "__rt_version", "1"

        RSEG DOVERLAY:DATA:NOROOT(0)
        RSEG IOVERLAY:IDATA:NOROOT(0)
        RSEG ISTACK:IDATA:NOROOT(0)
        RSEG PSTACK:XDATA:NOROOT(0)
        RSEG XSTACK:XDATA:NOROOT(0)

        EXTERN ?V0
        EXTERN ?V1
        EXTERN ?V2
        EXTERN ?V3
        EXTERN ?ALLOC_XSTACK8
        EXTERN ?BANKED_ENTER_XDATA
        EXTERN ?BANKED_LEAVE_XDATA
        EXTERN ?BDISPATCH
        EXTERN ?DEALLOC_XSTACK8
        EXTERN ?PUSH_XSTACK8_X_FOUR
        EXTERN ?PUSH_XSTACK8_X_TWO
        EXTERN ?PUSH_XSTACK_I_ONE
        EXTERN ?PUSH_XSTACK_I_THREE
        EXTERN ?PUSH_XSTACK_I_TWO
        EXTERN ?XSP
        EXTERN ?XSTACK_DISP0_8
        EXTERN ?XSTACK_DISP100_8
        EXTERN ?XSTACK_DISP101_8
        EXTERN __INIT_XDATA_I
        EXTERN __INIT_XDATA_Z

        FUNCTION `??SampleApp_CallBack::?relay`,0203H
        PUBLIC `??SampleApp_HandleKeys::?relay`
        FUNCTION `??SampleApp_HandleKeys::?relay`,0203H
        PUBLIC `??SampleApp_Init::?relay`
        FUNCTION `??SampleApp_Init::?relay`,0203H
        PUBLIC `??SampleApp_MessageMSGCB::?relay`
        FUNCTION `??SampleApp_MessageMSGCB::?relay`,0203H
        PUBLIC `??SampleApp_ProcessEvent::?relay`
        FUNCTION `??SampleApp_ProcessEvent::?relay`,0203H
        PUBLIC `??SampleApp_SendFlashMessage::?relay`
        FUNCTION `??SampleApp_SendFlashMessage::?relay`,0203H
        PUBLIC `??SampleApp_SendPeriodicMessage::?relay`
        FUNCTION `??SampleApp_SendPeriodicMessage::?relay`,0203H
        PUBLIC SampleAppFlashCounter
        PUBLIC SampleAppPeriodicCounter
        PUBLIC SampleApp_Broadcast
        FUNCTION SampleApp_CallBack,0a1603H
        ARGFRAME XSTACK, 0, STACK
        LOCFRAME ISTACK, 1, STACK
        LOCFRAME XSTACK, 92, STACK
        PUBLIC SampleApp_ClusterList
        PUBLIC SampleApp_Flash_DstAddr
        PUBLIC SampleApp_Group
        PUBLIC SampleApp_HandleKeys
        FUNCTION SampleApp_HandleKeys,0a1203H
        ARGFRAME XSTACK, 12, STACK
        ARGFRAME IOVERLAY, 0, STATIC
        ARGFRAME DOVERLAY, 0, STATIC
        LOCFRAME XSTACK, 31, STACK
        PUBLIC SampleApp_Init
        FUNCTION SampleApp_Init,0a1203H
        ARGFRAME XSTACK, 0, STACK
        LOCFRAME XSTACK, 43, STACK
        PUBLIC SampleApp_MessageMSGCB
        FUNCTION SampleApp_MessageMSGCB,0a1203H
        ARGFRAME XSTACK, 12, STACK
        ARGFRAME IOVERLAY, 0, STATIC
        ARGFRAME DOVERLAY, 0, STATIC
        LOCFRAME XSTACK, 12, STACK
        PUBLIC SampleApp_NwkState
        PUBLIC SampleApp_Periodic_DstAddr
        PUBLIC SampleApp_ProcessEvent
        FUNCTION SampleApp_ProcessEvent,0a1203H
        ARGFRAME XSTACK, 0, STACK
        LOCFRAME XSTACK, 12, STACK
        PUBLIC SampleApp_SendFlashMessage
        FUNCTION SampleApp_SendFlashMessage,0a1203H
        ARGFRAME XSTACK, 0, STACK
        LOCFRAME ISTACK, 1, STACK
        LOCFRAME XSTACK, 22, STACK
        PUBLIC SampleApp_SendPeriodicMessage
        FUNCTION SampleApp_SendPeriodicMessage,0a1203H
        ARGFRAME XSTACK, 12, STACK
        ARGFRAME IOVERLAY, 0, STATIC
        ARGFRAME DOVERLAY, 0, STATIC
        LOCFRAME XSTACK, 19, STACK
        PUBLIC SampleApp_SimpleDesc
        PUBLIC SampleApp_TaskID
        PUBLIC SampleApp_TransID
        PUBLIC SampleApp_epDesc
        PUBLIC SerialApp_TaskID
        PUBLIC SerialApp_epDesc
        PUBLIC receiveData
        PUBLIC serialBuffer
        PUBLIC serialOut
        
          CFI Names cfiNames0
          CFI StackFrame CFA_SP SP IDATA
          CFI StackFrame CFA_PSP16 PSP16 XDATA
          CFI StackFrame CFA_XSP16 XSP16 XDATA
          CFI StaticOverlayFrame CFA_IOVERLAY IOVERLAY
          CFI StaticOverlayFrame CFA_DOVERLAY DOVERLAY
          CFI Resource `PSW.CY`:1, `B.BR0`:1, `B.BR1`:1, `B.BR2`:1, `B.BR3`:1
          CFI Resource `B.BR4`:1, `B.BR5`:1, `B.BR6`:1, `B.BR7`:1, `VB.BR8`:1
          CFI Resource `VB.BR9`:1, `VB.BR10`:1, `VB.BR11`:1, `VB.BR12`:1
          CFI Resource `VB.BR13`:1, `VB.BR14`:1, `VB.BR15`:1, VB:8, B:8, A:8
          CFI Resource PSW:8, DPL0:8, DPH0:8, R0:8, R1:8, R2:8, R3:8, R4:8, R5:8
          CFI Resource R6:8, R7:8, V0:8, V1:8, V2:8, V3:8, V4:8, V5:8, V6:8, V7:8
          CFI Resource SP:8, PSPH:8, PSPL:8, PSP16:16, XSPH:8, XSPL:8, XSP16:16
          CFI VirtualResource ?RET:24
          CFI Resource ?BRET_EXT:8
          CFI VirtualResource ?RET_HIGH:8, ?RET_LOW:8
          CFI ResourceParts PSP16 PSPH, PSPL
          CFI ResourceParts XSP16 XSPH, XSPL
          CFI ResourceParts ?RET ?BRET_EXT, ?RET_HIGH, ?RET_LOW
          CFI EndNames cfiNames0
        
          CFI Common cfiCommon0 Using cfiNames0
          CFI CodeAlign 1
          CFI DataAlign -1
          CFI ReturnAddress ?RET CODE
          CFI CFA_DOVERLAY Used
          CFI CFA_IOVERLAY Used
          CFI CFA_SP SP+-3
          CFI CFA_PSP16 PSP16+0
          CFI CFA_XSP16 XSP16+0
          CFI `PSW.CY` SameValue
          CFI `B.BR0` SameValue
          CFI `B.BR1` SameValue
          CFI `B.BR2` SameValue
          CFI `B.BR3` SameValue
          CFI `B.BR4` SameValue
          CFI `B.BR5` SameValue
          CFI `B.BR6` SameValue
          CFI `B.BR7` SameValue
          CFI `VB.BR8` SameValue
          CFI `VB.BR9` SameValue
          CFI `VB.BR10` SameValue
          CFI `VB.BR11` SameValue
          CFI `VB.BR12` SameValue
          CFI `VB.BR13` SameValue
          CFI `VB.BR14` SameValue
          CFI `VB.BR15` SameValue
          CFI VB SameValue
          CFI B Undefined
          CFI A Undefined
          CFI PSW SameValue
          CFI DPL0 SameValue
          CFI DPH0 SameValue
          CFI R0 Undefined
          CFI R1 Undefined
          CFI R2 Undefined
          CFI R3 Undefined
          CFI R4 Undefined
          CFI R5 Undefined
          CFI R6 SameValue
          CFI R7 SameValue
          CFI V0 SameValue
          CFI V1 SameValue
          CFI V2 SameValue
          CFI V3 SameValue
          CFI V4 SameValue
          CFI V5 SameValue
          CFI V6 SameValue
          CFI V7 SameValue
          CFI PSPH Undefined
          CFI PSPL Undefined
          CFI XSPH Undefined
          CFI XSPL Undefined
          CFI ?RET Concat
          CFI ?BRET_EXT Frame(CFA_SP, 3)
          CFI ?RET_HIGH Frame(CFA_SP, 2)
          CFI ?RET_LOW Frame(CFA_SP, 1)
          CFI EndCommon cfiCommon0
        
        
          CFI Common cfiCommon1 Using cfiNames0
          CFI CodeAlign 1
          CFI DataAlign -1
          CFI ReturnAddress ?RET CODE
          CFI CFA_DOVERLAY Used
          CFI CFA_IOVERLAY Used
          CFI CFA_SP SP+-2
          CFI CFA_PSP16 PSP16+0
          CFI CFA_XSP16 XSP16+0
          CFI `PSW.CY` SameValue
          CFI `B.BR0` SameValue
          CFI `B.BR1` SameValue
          CFI `B.BR2` SameValue
          CFI `B.BR3` SameValue
          CFI `B.BR4` SameValue
          CFI `B.BR5` SameValue
          CFI `B.BR6` SameValue
          CFI `B.BR7` SameValue
          CFI `VB.BR8` SameValue
          CFI `VB.BR9` SameValue
          CFI `VB.BR10` SameValue
          CFI `VB.BR11` SameValue
          CFI `VB.BR12` SameValue
          CFI `VB.BR13` SameValue
          CFI `VB.BR14` SameValue
          CFI `VB.BR15` SameValue
          CFI VB SameValue
          CFI B SameValue
          CFI A SameValue
          CFI PSW SameValue
          CFI DPL0 SameValue
          CFI DPH0 SameValue
          CFI R0 SameValue
          CFI R1 SameValue
          CFI R2 SameValue
          CFI R3 SameValue
          CFI R4 SameValue
          CFI R5 SameValue
          CFI R6 SameValue
          CFI R7 SameValue
          CFI V0 SameValue
          CFI V1 SameValue
          CFI V2 SameValue
          CFI V3 SameValue
          CFI V4 SameValue
          CFI V5 SameValue
          CFI V6 SameValue
          CFI V7 SameValue
          CFI PSPH Undefined
          CFI PSPL Undefined
          CFI XSPH Undefined
          CFI XSPL Undefined
          CFI ?RET Concat
          CFI ?BRET_EXT SameValue
          CFI ?RET_HIGH Frame(CFA_SP, 2)
          CFI ?RET_LOW Frame(CFA_SP, 1)
          CFI EndCommon cfiCommon1
        
AF_DataRequest      SYMBOL "AF_DataRequest"
`??AF_DataRequest::?relay` SYMBOL "?relay", AF_DataRequest
HalLcdWriteString   SYMBOL "HalLcdWriteString"
`??HalLcdWriteString::?relay` SYMBOL "?relay", HalLcdWriteString
HalLcdWriteStringValue SYMBOL "HalLcdWriteStringValue"
`??HalLcdWriteStringValue::?relay` SYMBOL "?relay", HalLcdWriteStringValue
HalLedBlink         SYMBOL "HalLedBlink"
`??HalLedBlink::?relay` SYMBOL "?relay", HalLedBlink
HalUARTOpen         SYMBOL "HalUARTOpen"
`??HalUARTOpen::?relay` SYMBOL "?relay", HalUARTOpen
HalUARTRead         SYMBOL "HalUARTRead"
`??HalUARTRead::?relay` SYMBOL "?relay", HalUARTRead
HalUARTWrite        SYMBOL "HalUARTWrite"
`??HalUARTWrite::?relay` SYMBOL "?relay", HalUARTWrite
RegisterForKeys     SYMBOL "RegisterForKeys"
`??RegisterForKeys::?relay` SYMBOL "?relay", RegisterForKeys
afRegister          SYMBOL "afRegister"
`??afRegister::?relay` SYMBOL "?relay", afRegister
aps_AddGroup        SYMBOL "aps_AddGroup"
`??aps_AddGroup::?relay` SYMBOL "?relay", aps_AddGroup
memcpy              SYMBOL "memcpy"
`??memcpy::?relay`  SYMBOL "?relay", memcpy
osal_memcpy         SYMBOL "osal_memcpy"
`??osal_memcpy::?relay` SYMBOL "?relay", osal_memcpy
osal_msg_deallocate SYMBOL "osal_msg_deallocate"
`??osal_msg_deallocate::?relay` SYMBOL "?relay", osal_msg_deallocate
osal_msg_receive    SYMBOL "osal_msg_receive"
`??osal_msg_receive::?relay` SYMBOL "?relay", osal_msg_receive
osal_rand           SYMBOL "osal_rand"
`??osal_rand::?relay` SYMBOL "?relay", osal_rand
osal_start_timerEx  SYMBOL "osal_start_timerEx"
`??osal_start_timerEx::?relay` SYMBOL "?relay", osal_start_timerEx
sprintf             SYMBOL "sprintf"
`??sprintf::?relay` SYMBOL "?relay", sprintf
SampleApp_HandleKeys SYMBOL "SampleApp_HandleKeys"
`??SampleApp_HandleKeys::?relay` SYMBOL "?relay", SampleApp_HandleKeys
SampleApp_Init      SYMBOL "SampleApp_Init"
`??SampleApp_Init::?relay` SYMBOL "?relay", SampleApp_Init
SampleApp_MessageMSGCB SYMBOL "SampleApp_MessageMSGCB"
`??SampleApp_MessageMSGCB::?relay` SYMBOL "?relay", SampleApp_MessageMSGCB
SampleApp_ProcessEvent SYMBOL "SampleApp_ProcessEvent"
`??SampleApp_ProcessEvent::?relay` SYMBOL "?relay", SampleApp_ProcessEvent
SampleApp_SendFlashMessage SYMBOL "SampleApp_SendFlashMessage"
`??SampleApp_SendFlashMessage::?relay` SYMBOL "?relay", SampleApp_SendFlashMessage
SampleApp_SendPeriodicMessage SYMBOL "SampleApp_SendPeriodicMessage"
`??SampleApp_SendPeriodicMessage::?relay` SYMBOL "?relay", SampleApp_SendPeriodicMessage

        EXTERN `??AF_DataRequest::?relay`
        FUNCTION `??AF_DataRequest::?relay`,00H
        EXTERN `??HalLcdWriteString::?relay`
        FUNCTION `??HalLcdWriteString::?relay`,00H
        EXTERN `??HalLcdWriteStringValue::?relay`
        FUNCTION `??HalLcdWriteStringValue::?relay`,00H
        EXTERN `??HalLedBlink::?relay`
        FUNCTION `??HalLedBlink::?relay`,00H
        EXTERN `??HalUARTOpen::?relay`
        FUNCTION `??HalUARTOpen::?relay`,00H
        EXTERN `??HalUARTRead::?relay`
        FUNCTION `??HalUARTRead::?relay`,00H
        EXTERN `??HalUARTWrite::?relay`
        FUNCTION `??HalUARTWrite::?relay`,00H
        EXTERN `??RegisterForKeys::?relay`
        FUNCTION `??RegisterForKeys::?relay`,00H
        EXTERN `??afRegister::?relay`
        FUNCTION `??afRegister::?relay`,00H
        EXTERN `??aps_AddGroup::?relay`
        FUNCTION `??aps_AddGroup::?relay`,00H
        EXTERN `??memcpy::?relay`
        FUNCTION `??memcpy::?relay`,00H
        EXTERN `??osal_memcpy::?relay`
        FUNCTION `??osal_memcpy::?relay`,00H
        EXTERN `??osal_msg_deallocate::?relay`
        FUNCTION `??osal_msg_deallocate::?relay`,00H
        EXTERN `??osal_msg_receive::?relay`
        FUNCTION `??osal_msg_receive::?relay`,00H
        EXTERN `??osal_rand::?relay`
        FUNCTION `??osal_rand::?relay`,00H
        EXTERN `??osal_start_timerEx::?relay`
        FUNCTION `??osal_start_timerEx::?relay`,00H
        EXTERN `??sprintf::?relay`
        FUNCTION `??sprintf::?relay`,00H
        EXTERN AF_DataRequest
        FUNCTION AF_DataRequest,0202H
        ARGFRAME ISTACK, 0, STACK
        ARGFRAME PSTACK, 0, STACK
        ARGFRAME XSTACK, 22, STACK
        ARGFRAME IOVERLAY, 0, STATIC
        ARGFRAME DOVERLAY, 0, STATIC
        EXTERN HalLcdWriteString
        FUNCTION HalLcdWriteString,0202H
        ARGFRAME ISTACK, 0, STACK
        ARGFRAME PSTACK, 0, STACK
        ARGFRAME XSTACK, 40, STACK
        ARGFRAME IOVERLAY, 0, STATIC
        ARGFRAME DOVERLAY, 0, STATIC
        EXTERN HalLcdWriteStringValue
        FUNCTION HalLcdWriteStringValue,0202H
        ARGFRAME ISTACK, 0, STACK
        ARGFRAME PSTACK, 0, STACK
        ARGFRAME XSTACK, 92, STACK
        ARGFRAME IOVERLAY, 0, STATIC
        ARGFRAME DOVERLAY, 0, STATIC
        EXTERN HalLedBlink
        FUNCTION HalLedBlink,0202H
        ARGFRAME ISTACK, 0, STACK
        ARGFRAME PSTACK, 0, STACK
        ARGFRAME XSTACK, 10, STACK
        ARGFRAME IOVERLAY, 0, STATIC
        ARGFRAME DOVERLAY, 0, STATIC
        EXTERN HalUARTOpen
        FUNCTION HalUARTOpen,0202H
        ARGFRAME ISTACK, 0, STACK
        ARGFRAME PSTACK, 0, STACK
        ARGFRAME XSTACK, 40, STACK
        ARGFRAME IOVERLAY, 0, STATIC
        ARGFRAME DOVERLAY, 0, STATIC
        EXTERN HalUARTRead
        FUNCTION HalUARTRead,0202H
        ARGFRAME ISTACK, 0, STACK
        ARGFRAME PSTACK, 0, STACK
        ARGFRAME XSTACK, 91, STACK
        ARGFRAME IOVERLAY, 0, STATIC
        ARGFRAME DOVERLAY, 0, STATIC
        EXTERN HalUARTWrite
        FUNCTION HalUARTWrite,0202H
        ARGFRAME ISTACK, 0, STACK
        ARGFRAME PSTACK, 0, STACK
        ARGFRAME XSTACK, 11, STACK
        ARGFRAME IOVERLAY, 0, STATIC
        ARGFRAME DOVERLAY, 0, STATIC
        EXTERN RegisterForKeys
        FUNCTION RegisterForKeys,0202H
        ARGFRAME ISTACK, 0, STACK
        ARGFRAME PSTACK, 0, STACK
        ARGFRAME XSTACK, 40, STACK
        ARGFRAME IOVERLAY, 0, STATIC
        ARGFRAME DOVERLAY, 0, STATIC
        EXTERN afRegister
        FUNCTION afRegister,0202H
        ARGFRAME ISTACK, 0, STACK
        ARGFRAME PSTACK, 0, STACK
        ARGFRAME XSTACK, 40, STACK
        ARGFRAME IOVERLAY, 0, STATIC
        ARGFRAME DOVERLAY, 0, STATIC
        EXTERN aps_AddGroup
        FUNCTION aps_AddGroup,0202H
        ARGFRAME ISTACK, 0, STACK
        ARGFRAME PSTACK, 0, STACK
        ARGFRAME XSTACK, 40, STACK
        ARGFRAME IOVERLAY, 0, STATIC
        ARGFRAME DOVERLAY, 0, STATIC
        EXTERN memcpy
        FUNCTION memcpy,010202H
        ARGFRAME ISTACK, 0, STACK
        ARGFRAME PSTACK, 0, STACK
        ARGFRAME XSTACK, 12, STACK
        ARGFRAME IOVERLAY, 0, STATIC
        ARGFRAME DOVERLAY, 0, STATIC
        EXTERN osal_memcpy
        FUNCTION osal_memcpy,0202H
        ARGFRAME ISTACK, 0, STACK
        ARGFRAME PSTACK, 0, STACK
        ARGFRAME XSTACK, 43, STACK
        ARGFRAME IOVERLAY, 0, STATIC
        ARGFRAME DOVERLAY, 0, STATIC
        EXTERN osal_msg_deallocate
        FUNCTION osal_msg_deallocate,0202H
        ARGFRAME ISTACK, 0, STACK
        ARGFRAME PSTACK, 0, STACK
        ARGFRAME XSTACK, 12, STACK
        ARGFRAME IOVERLAY, 0, STATIC
        ARGFRAME DOVERLAY, 0, STATIC
        EXTERN osal_msg_receive
        FUNCTION osal_msg_receive,0202H
        ARGFRAME ISTACK, 0, STACK
        ARGFRAME PSTACK, 0, STACK
        ARGFRAME XSTACK, 12, STACK
        ARGFRAME IOVERLAY, 0, STATIC
        ARGFRAME DOVERLAY, 0, STATIC
        EXTERN osal_rand
        FUNCTION osal_rand,0202H
        ARGFRAME ISTACK, 0, STACK
        ARGFRAME PSTACK, 0, STACK
        ARGFRAME XSTACK, 12, STACK
        ARGFRAME IOVERLAY, 0, STATIC
        ARGFRAME DOVERLAY, 0, STATIC
        EXTERN osal_start_timerEx
        FUNCTION osal_start_timerEx,0202H
        ARGFRAME ISTACK, 0, STACK
        ARGFRAME PSTACK, 0, STACK
        ARGFRAME XSTACK, 12, STACK
        ARGFRAME IOVERLAY, 0, STATIC
        ARGFRAME DOVERLAY, 0, STATIC
        EXTERN sprintf
        FUNCTION sprintf,0202H
        ARGFRAME ISTACK, 0, STACK
        ARGFRAME PSTACK, 0, STACK
        ARGFRAME XSTACK, 31, STACK
        ARGFRAME IOVERLAY, 0, STATIC
        ARGFRAME DOVERLAY, 0, STATIC

// C:\Users\Re\Documents\ZStack\ZStack-CC2530-2.3.1\Projects\zstack\Samples\SampleApp\Source\Coordinator.c
//    1 /**************************************************************************************************
//    2   Filename:       SampleApp.c
//    3   Revised:        $Date: 2009-03-18 15:56:27 -0700 (Wed, 18 Mar 2009) $
//    4   Revision:       $Revision: 19453 $
//    5 
//    6   Description:    Sample Application (no Profile).
//    7 
//    8 
//    9   Copyright 2007 Texas Instruments Incorporated. All rights reserved.
//   10 
//   11   IMPORTANT: Your use of this Software is limited to those specific rights
//   12   granted under the terms of a software license agreement between the user
//   13   who downloaded the software, his/her employer (which must be your employer)
//   14   and Texas Instruments Incorporated (the "License").  You may not use this
//   15   Software unless you agree to abide by the terms of the License. The License
//   16   limits your use, and you acknowge, that the Software may not be modified,
//   17   copied or distributed unless embedded on a Texas Instruments microcontroller
//   18   or used solely and exclusively in conjunction with a Texas Instruments radio
//   19   frequency transceiver, which is integrated into your product.  Other than for
//   20   the foregoing purpose, you may not use, reproduce, copy, prepare derivative
//   21   works of, modify, distribute, perform, display or sell this Software and/or
//   22   its documentation for any purpose.
//   23 
//   24   YOU FURTHER ACKNOWLEDGE AND AGREE THAT THE SOFTWARE AND DOCUMENTATION ARE
//   25   PROVIDED ?AS IS? WITHOUT WARRANTY OF ANY KIND, EITHER EXPRESS OR IMPLIED,
//   26   INCLUDING WITHOUT LIMITATION, ANY WARRANTY OF MERCHANTABILITY, TITLE,
//   27   NON-INFRINGEMENT AND FITNESS FOR A PARTICULAR PURPOSE. IN NO EVENT SHALL
//   28   TEXAS INSTRUMENTS OR ITS LICENSORS BE LIABLE OR OBLIGATED UNDER CONTRACT,
//   29   NEGLIGENCE, STRICT LIABILITY, CONTRIBUTION, BREACH OF WARRANTY, OR OTHER
//   30   LEGAL EQUITABLE THEORY ANY DIRECT OR INDIRECT DAMAGES OR EXPENSES
//   31   INCLUDING BUT NOT LIMITED TO ANY INCIDENTAL, SPECIAL, INDIRECT, PUNITIVE
//   32   OR CONSEQUENTIAL DAMAGES, LOST PROFITS OR LOST DATA, COST OF PROCUREMENT
//   33   OF SUBSTITUTE GOODS, TECHNOLOGY, SERVICES, OR ANY CLAIMS BY THIRD PARTIES
//   34   (INCLUDING BUT NOT LIMITED TO ANY DEFENSE THEREOF), OR OTHER SIMILAR COSTS.
//   35 
//   36   Should you have any questions regarding your right to use this Software,
//   37   contact Texas Instruments Incorporated at www.TI.com.
//   38 **************************************************************************************************/
//   39 
//   40 /*********************************************************************
//   41   This application isn't intended to do anything useful, it is
//   42   intended to be a simple example of an application's structure.
//   43 
//   44   This application sends it's messages either as broadcast or
//   45   broadcast filtered group messages.  The other (more normal)
//   46   message addressing is unicast.  Most of the other sample
//   47   applications are written to support the unicast message model.
//   48 
//   49   Key control:
//   50     SW1:  Sends a flash command to all devices in Group 1.
//   51     SW2:  Adds/Removes (toggles) this device in and out
//   52           of Group 1.  This will enable and disable the
//   53           reception of the flash command.
//   54 *********************************************************************/
//   55 
//   56 /*********************************************************************
//   57  * INCLUDES
//   58  */
//   59 #include "AF.h"
//   60 #include "OSAL.h"
//   61 #include "OnBoard.h"
//   62 #include "ZGlobals.h"
//   63 #include "AF.h"
//   64 #include "aps_groups.h"
//   65 #include "ZDApp.h"
//   66 #include "ZDObject.h"
//   67 #include "ZDProfile.h"
//   68 #include "stdio.h"sprin
//   69 #include "string.h"
//   70 
//   71 #include "SampleApp.h"
//   72 #include "SampleAppHw.h"
//   73 
//   74 /* HAL */
//   75 #include "hal_drivers.h"
//   76 #if defined (LCD_SUPPORTED )
//   77   #include "hal_lcd.h"
//   78 #endif
//   79 #include "hal_led.h"
//   80 #include "hal_key.h"
//   81 #include "hal_adc.h"
//   82 #include "hal_uart.h"
//   83 
//   84 /*********************************************************************
//   85  * MACROS
//   86  */
//   87 
//   88 /*********************************************************************
//   89  * CONSTANTS
//   90  */
//   91 
//   92 #if !defined( SAMPLE_APP_PORT )
//   93 #define SAMPLE_APP_PORT  0
//   94 #endif
//   95 
//   96 #if !defined( SAMPLE_APP_BAUD )
//   97 #define SAMPLE_APP_BAUD  HAL_UART_BR_9600
//   98 //#define SAMPLE_APP_BAUD  HAL_UART_BR_38400
//   99 //#define SAMPLE_APP_BAUD  HAL_UART_BR_115200
//  100 #endif
//  101 
//  102 // When the Rx buf space is less than this threshold, invoke the Rx callback.
//  103 #if !defined( SAMPLE_APP_THRESH )
//  104 #define SAMPLE_APP_THRESH  64
//  105 #endif
//  106 
//  107 #if !defined( SAMPLE_APP_RX_SZ )
//  108 #define SAMPLE_APP_RX_SZ  128
//  109 #endif
//  110 
//  111 #if !defined( SAMPLE_APP_TX_SZ )
//  112 #define SAMPLE_APP_TX_SZ  400
//  113 #endif
//  114 
//  115 // Millisecs of idle time after a byte is received before invoking Rx callback.
//  116 #if !defined( SAMPLE_APP_IDLE )
//  117 #define SAMPLE_APP_IDLE  6
//  118 #endif
//  119 
//  120 // Loopback Rx bytes to Tx for throughput testing.
//  121 #if !defined( SAMPLE_APP_LOOPBACK )
//  122 #define SAMPLE_APP_LOOPBACK  FALSE
//  123 #endif
//  124 
//  125 // This is the max byte count per OTA message.
//  126 #if !defined( SAMPLE_APP_TX_MAX )
//  127 #define SAMPLE_APP_TX_MAX  128
//  128 #endif
//  129 
//  130 #define SAMPLE_APP_RSP_CNT  4
//  131 
//  132 /*********************************************************************
//  133  * TYPEDEFS
//  134  */
//  135 
//  136 /*********************************************************************
//  137  * GLOBAL VARIABLES
//  138  */

        RSEG XDATA_Z:XDATA:NOROOT(0)
        DATA8
//  139 uint8 SerialApp_TaskID;    // Task ID for internal task/event processing.
SerialApp_TaskID:
        DS 1
        REQUIRE __INIT_XDATA_Z
//  140 
//  141 uint8 SampleApp_TaskID;    // Task ID for internal task/event processing.
//  142 
//  143 // This list should be filled with Application specific Cluster IDs.

        RSEG XDATA_ROM_C:CONST:REORDER:NOROOT(0)
        DATA8
//  144 const cId_t SampleApp_ClusterList[SAMPLEAPP_MAX_CLUSTERS] =
SampleApp_ClusterList:
        DATA16
        DW 1
        DW 2
        DW 3
        DW 4
        DW 0
        DW 0
//  145 {
//  146   SAMPLEAPP_PERIODIC_CLUSTERID,
//  147   SAMPLEAPP_FLASH_CLUSTERID,
//  148   SAMPLEAPP_CLUSTERID1,
//  149   SAMPLEAPP_CLUSTERID2
//  150 };
//  151 

        RSEG XDATA_ROM_C:CONST:REORDER:NOROOT(0)
        DATA8
//  152 const SimpleDescriptionFormat_t SampleApp_SimpleDesc =
SampleApp_SimpleDesc:
        DB 20
        DATA16
        DW 3848
        DW 1
        DATA8
        DB 0
        DB 6
        DATA16
        DW SampleApp_ClusterList
        DATA8
        DB 6
        DATA16
        DW SampleApp_ClusterList
//  153 {
//  154   SAMPLEAPP_ENDPOINT,              //  int Endpoint;
//  155   SAMPLEAPP_PROFID,                //  uint16 AppProfId[2];
//  156   SAMPLEAPP_DEVICEID,              //  uint16 AppDeviceId[2];
//  157   SAMPLEAPP_DEVICE_VERSION,        //  int   AppDevVer:4;
//  158   SAMPLEAPP_FLAGS,                 //  int   AppFlags:4;
//  159   SAMPLEAPP_MAX_CLUSTERS,          //  uint8  AppNumInClusters;
//  160   (cId_t *)SampleApp_ClusterList,  //  uint8 *pAppInClusterList;
//  161   SAMPLEAPP_MAX_CLUSTERS,          //  uint8  AppNumInClusters;
//  162   (cId_t *)SampleApp_ClusterList   //  uint8 *pAppInClusterList;
//  163 };
//  164 
//  165 // This is the Endpoint/Interface description.  It is defined here, but
//  166 // filled-in in SampleApp_Init().  Another way to go would be to fill
//  167 // in the structure here and make it a "const" (in code space).  The
//  168 // way it's defined in this sample app it is define in RAM.

        RSEG XDATA_Z:XDATA:NOROOT(0)
        DATA8
//  169 endPointDesc_t SampleApp_epDesc;
SampleApp_epDesc:
        DS 6
        REQUIRE __INIT_XDATA_Z
//  170 

        RSEG XDATA_ROM_C:CONST:REORDER:NOROOT(0)
        DATA8
//  171 const endPointDesc_t SerialApp_epDesc =
SerialApp_epDesc:
        DB 20
        DATA16
        DW SerialApp_TaskID
        DW SampleApp_SimpleDesc
        DATA8
        DB 0
//  172 {
//  173   SAMPLEAPP_ENDPOINT,
//  174  &SerialApp_TaskID,
//  175   (SimpleDescriptionFormat_t *)&SampleApp_SimpleDesc,
//  176   noLatencyReqs
//  177 };
//  178 
//  179 /*********************************************************************
//  180  * EXTERNAL VARIABLES
//  181  */
//  182 
//  183 typedef struct
//  184 {
//  185     int temperature;           // -100 degrees C to 200 degrees C
//  186     int water_level;           // -50m to 50m
//  187     int  flow_rate;   	 // -10000 L/min to 10000 L/min
//  188     uint8  PH;   		 // 0 to 14
//  189     uint32  salinity;   	 // 0 to 2000000 mg
//  190     uint8  batt_level;        // 0 to 100 percent
//  191     float GNSS_latitude;         // -85 to 85 decimal degrees
//  192     float GNSS_longitude;        // -180 to 180 decimal degrees
//  193     
//  194     bool sensors_okay;   	 // 1=good, 0=bad
//  195     bool node_okay;   		 // 1=good, 0=bad
//  196     char error_state[25];    	 // char message, null terminated "\n"
//  197  
//  198 } data_sensor_outgoing;
//  199 
//  200 
//  201 /*********************************************************************
//  202  * EXTERNAL FUNCTIONS
//  203  */
//  204 
//  205 /*********************************************************************
//  206  * LOCAL VARIABLES
//  207  */

        RSEG XDATA_Z:XDATA:NOROOT(0)
        DATA8
//  208 static uint8 SampleApp_TaskID;   // Task ID for internal task/event processing
SampleApp_TaskID:
        DS 1
        REQUIRE __INIT_XDATA_Z
//  209                           // This variable will be received when
//  210                           // SampleApp_Init() is called.

        RSEG XDATA_Z:XDATA:NOROOT(0)
        DATA8
//  211 devStates_t SampleApp_NwkState;
SampleApp_NwkState:
        DS 1
        REQUIRE __INIT_XDATA_Z
//  212 

        RSEG XDATA_Z:XDATA:NOROOT(0)
        DATA8
//  213 uint8 SampleApp_TransID;  // This is the unique message ID (counter)
SampleApp_TransID:
        DS 1
        REQUIRE __INIT_XDATA_Z
//  214 

        RSEG XDATA_Z:XDATA:NOROOT(0)
        DATA8
//  215 afAddrType_t SampleApp_Periodic_DstAddr;
SampleApp_Periodic_DstAddr:
        DS 12
        REQUIRE __INIT_XDATA_Z

        RSEG XDATA_Z:XDATA:NOROOT(0)
        DATA8
//  216 afAddrType_t SampleApp_Flash_DstAddr;
SampleApp_Flash_DstAddr:
        DS 12
        REQUIRE __INIT_XDATA_Z

        RSEG XDATA_Z:XDATA:NOROOT(0)
        DATA8
//  217 afAddrType_t SampleApp_Broadcast;
SampleApp_Broadcast:
        DS 12
        REQUIRE __INIT_XDATA_Z
//  218 

        RSEG XDATA_Z:XDATA:NOROOT(0)
        DATA8
//  219 aps_Group_t SampleApp_Group;
SampleApp_Group:
        DS 18
        REQUIRE __INIT_XDATA_Z
//  220 

        RSEG XDATA_Z:XDATA:NOROOT(0)
        DATA8
//  221 uint8 SampleAppPeriodicCounter = 0;
SampleAppPeriodicCounter:
        DS 1
        REQUIRE __INIT_XDATA_Z

        RSEG XDATA_Z:XDATA:NOROOT(0)
        DATA8
//  222 uint8 SampleAppFlashCounter = 0;
SampleAppFlashCounter:
        DS 1
        REQUIRE __INIT_XDATA_Z
//  223 
//  224 static afAddrType_t SampleApp_TxAddr;
//  225 static uint8 SampleApp_TxSeq;
//  226 static uint8 SampleApp_TxBuf[SAMPLE_APP_TX_MAX+1];

        RSEG XDATA_Z:XDATA:NOROOT(0)
        DATA8
//  227 static uint8 SampleApp_TxLen;
SampleApp_TxLen:
        DS 1
        REQUIRE __INIT_XDATA_Z
//  228 
//  229 static afAddrType_t SampleApp_RxAddr;

        RSEG XDATA_Z:XDATA:NOROOT(0)
        DATA8
//  230 static uint8 SampleApp_RxSeq;
SampleApp_RxSeq:
        DS 1
        REQUIRE __INIT_XDATA_Z
//  231 static uint8 SampleApp_RspBuf[SAMPLE_APP_RSP_CNT];
//  232 
//  233 /*********************************************************************
//  234  * LOCAL FUNCTIONS
//  235  */
//  236 void SampleApp_HandleKeys( uint8 shift, uint8 keys );
//  237 void SampleApp_MessageMSGCB( afIncomingMSGPacket_t *pckt );
//  238 void SampleApp_SendPeriodicMessage( void );
//  239 void SampleApp_SendFlashMessage( uint16 flashTime );
//  240 
//  241 static void SampleApp_CallBack(uint8 port, uint8 event);
//  242 
//  243 /*********************************************************************
//  244  * NETWORK LAYER CALLBACKS
//  245  */
//  246 
//  247 /*********************************************************************
//  248  * PUBLIC FUNCTIONS
//  249  */
//  250 
//  251 /*********************************************************************
//  252  * @fn      SampleApp_Init
//  253  *
//  254  * @brief   Initialization function for the Generic App Task.
//  255  *          This is called during initialization and should contain
//  256  *          any application specific initialization (ie. hardware
//  257  *          initialization/setup, table initialization, power up
//  258  *          notificaiton ... ).
//  259  *
//  260  * @param   task_id - the ID assigned by OSAL.  This ID should be
//  261  *                    used to send messages and set timers.
//  262  *
//  263  * @return  none
//  264  */

        RSEG BANKED_CODE:HUGECODE:NOROOT(0)
//  265 void SampleApp_Init( uint8 task_id )
SampleApp_Init:
          CFI Block cfiBlock0 Using cfiCommon0
          CFI Function SampleApp_Init
        CODE
//  266 {
        FUNCALL SampleApp_Init, afRegister
        LOCFRAME ISTACK, 0, STACK
        LOCFRAME PSTACK, 0, STACK
        LOCFRAME XSTACK, 40, STACK
        LOCFRAME IOVERLAY, 0, STATIC
        LOCFRAME DOVERLAY, 0, STATIC
        ARGFRAME ISTACK, 0, STACK
        ARGFRAME PSTACK, 0, STACK
        ARGFRAME XSTACK, 40, STACK
        ARGFRAME IOVERLAY, 0, STATIC
        ARGFRAME DOVERLAY, 0, STATIC
        FUNCALL SampleApp_Init, RegisterForKeys
        LOCFRAME ISTACK, 0, STACK
        LOCFRAME PSTACK, 0, STACK
        LOCFRAME XSTACK, 40, STACK
        LOCFRAME IOVERLAY, 0, STATIC
        LOCFRAME DOVERLAY, 0, STATIC
        ARGFRAME ISTACK, 0, STACK
        ARGFRAME PSTACK, 0, STACK
        ARGFRAME XSTACK, 40, STACK
        ARGFRAME IOVERLAY, 0, STATIC
        ARGFRAME DOVERLAY, 0, STATIC
        FUNCALL SampleApp_Init, osal_memcpy
        LOCFRAME ISTACK, 0, STACK
        LOCFRAME PSTACK, 0, STACK
        LOCFRAME XSTACK, 43, STACK
        LOCFRAME IOVERLAY, 0, STATIC
        LOCFRAME DOVERLAY, 0, STATIC
        ARGFRAME ISTACK, 0, STACK
        ARGFRAME PSTACK, 0, STACK
        ARGFRAME XSTACK, 43, STACK
        ARGFRAME IOVERLAY, 0, STATIC
        ARGFRAME DOVERLAY, 0, STATIC
        FUNCALL SampleApp_Init, aps_AddGroup
        LOCFRAME ISTACK, 0, STACK
        LOCFRAME PSTACK, 0, STACK
        LOCFRAME XSTACK, 40, STACK
        LOCFRAME IOVERLAY, 0, STATIC
        LOCFRAME DOVERLAY, 0, STATIC
        ARGFRAME ISTACK, 0, STACK
        ARGFRAME PSTACK, 0, STACK
        ARGFRAME XSTACK, 40, STACK
        ARGFRAME IOVERLAY, 0, STATIC
        ARGFRAME DOVERLAY, 0, STATIC
        FUNCALL SampleApp_Init, afRegister
        LOCFRAME ISTACK, 0, STACK
        LOCFRAME PSTACK, 0, STACK
        LOCFRAME XSTACK, 40, STACK
        LOCFRAME IOVERLAY, 0, STATIC
        LOCFRAME DOVERLAY, 0, STATIC
        ARGFRAME ISTACK, 0, STACK
        ARGFRAME PSTACK, 0, STACK
        ARGFRAME XSTACK, 40, STACK
        ARGFRAME IOVERLAY, 0, STATIC
        ARGFRAME DOVERLAY, 0, STATIC
        FUNCALL SampleApp_Init, RegisterForKeys
        LOCFRAME ISTACK, 0, STACK
        LOCFRAME PSTACK, 0, STACK
        LOCFRAME XSTACK, 40, STACK
        LOCFRAME IOVERLAY, 0, STATIC
        LOCFRAME DOVERLAY, 0, STATIC
        ARGFRAME ISTACK, 0, STACK
        ARGFRAME PSTACK, 0, STACK
        ARGFRAME XSTACK, 40, STACK
        ARGFRAME IOVERLAY, 0, STATIC
        ARGFRAME DOVERLAY, 0, STATIC
        FUNCALL SampleApp_Init, HalUARTOpen
        LOCFRAME ISTACK, 0, STACK
        LOCFRAME PSTACK, 0, STACK
        LOCFRAME XSTACK, 40, STACK
        LOCFRAME IOVERLAY, 0, STATIC
        LOCFRAME DOVERLAY, 0, STATIC
        ARGFRAME ISTACK, 0, STACK
        ARGFRAME PSTACK, 0, STACK
        ARGFRAME XSTACK, 40, STACK
        ARGFRAME IOVERLAY, 0, STATIC
        ARGFRAME DOVERLAY, 0, STATIC
        FUNCALL SampleApp_Init, HalLcdWriteString
        LOCFRAME ISTACK, 0, STACK
        LOCFRAME PSTACK, 0, STACK
        LOCFRAME XSTACK, 40, STACK
        LOCFRAME IOVERLAY, 0, STATIC
        LOCFRAME DOVERLAY, 0, STATIC
        ARGFRAME ISTACK, 0, STACK
        ARGFRAME PSTACK, 0, STACK
        ARGFRAME XSTACK, 40, STACK
        ARGFRAME IOVERLAY, 0, STATIC
        ARGFRAME DOVERLAY, 0, STATIC
        REQUIRE ?V0
        REQUIRE ?V1
        REQUIRE ?V2
        MOV       A,#-0xb
        LCALL     ?BANKED_ENTER_XDATA
          CFI DPH0 load(1, XDATA, add(CFA_XSP16, literal(-1)))
          CFI DPL0 load(1, XDATA, add(CFA_XSP16, literal(-2)))
          CFI ?BRET_EXT load(1, XDATA, add(CFA_XSP16, literal(-3)))
          CFI ?RET_HIGH load(1, XDATA, add(CFA_XSP16, literal(-4)))
          CFI ?RET_LOW load(1, XDATA, add(CFA_XSP16, literal(-5)))
          CFI R7 load(1, XDATA, add(CFA_XSP16, literal(-6)))
          CFI V2 load(1, XDATA, add(CFA_XSP16, literal(-7)))
          CFI V1 load(1, XDATA, add(CFA_XSP16, literal(-8)))
          CFI V0 load(1, XDATA, add(CFA_XSP16, literal(-9)))
          CFI VB load(1, XDATA, add(CFA_XSP16, literal(-10)))
          CFI R6 load(1, XDATA, add(CFA_XSP16, literal(-11)))
          CFI CFA_SP SP+0
          CFI CFA_XSP16 add(XSP16, 11)
        ; Saved register size: 11
        ; Auto size: 29
        MOV       A,#-0x1d
        LCALL     ?ALLOC_XSTACK8
          CFI CFA_XSP16 add(XSP16, 40)
        MOV       A,R1
        MOV       R6,A
//  267   SampleApp_TaskID = task_id;
        MOV       DPTR,#SampleApp_TaskID
        MOVX      @DPTR,A
//  268   SampleApp_NwkState = DEV_INIT;
        MOV       DPTR,#SampleApp_NwkState
        MOV       A,#0x1
        MOVX      @DPTR,A
//  269   SampleApp_TransID = 0;
        MOV       DPTR,#SampleApp_TransID
        CLR       A
        MOVX      @DPTR,A
//  270 
//  271   // Device hardware initialization can be added here or in main() (Zmain.c).
//  272   // If the hardware is application specific - add it here.
//  273   // If the hardware is other parts of the device add it in main().
//  274 
//  275  #if defined ( BUILD_ALL_DEVICES )
//  276   // The "Demo" target is setup to have BUILD_ALL_DEVICES and HOLD_AUTO_START
//  277   // We are looking at a jumper (defined in SampleAppHw.c) to be jumpered
//  278   // together - if they are - we will start up a coordinator. Otherwise,
//  279   // the device will start as a router.
//  280   if ( readCoordinatorJumper() )
//  281     zgDeviceLogicalType = ZG_DEVICETYPE_COORDINATOR;
//  282   else
//  283     zgDeviceLogicalType = ZG_DEVICETYPE_ROUTER;
//  284 #endif // BUILD_ALL_DEVICES
//  285 
//  286 #if defined ( HOLD_AUTO_START )
//  287   // HOLD_AUTO_START is a compile option that will surpress ZDApp
//  288   //  from starting the device and wait for the application to
//  289   //  start the device.
//  290   ZDOInitDevice(0);
//  291 #endif
//  292 
//  293   // Setup for the periodic message's destination address
//  294   // Broadcast to everyone
//  295   SampleApp_Periodic_DstAddr.addrMode = (afAddrMode_t)AddrBroadcast;
        MOV       DPTR,#SampleApp_Periodic_DstAddr + 8
        MOV       A,#0xf
        MOVX      @DPTR,A
//  296   SampleApp_Periodic_DstAddr.endPoint = SAMPLEAPP_ENDPOINT;
        INC       DPTR
        MOV       A,#0x14
        MOVX      @DPTR,A
//  297   SampleApp_Periodic_DstAddr.addr.shortAddr = 0xFFFF;
        MOV       DPTR,#SampleApp_Periodic_DstAddr
        MOV       A,#-0x1
        MOVX      @DPTR,A
        INC       DPTR
        MOVX      @DPTR,A
//  298 
//  299   // Setup for the flash command's destination address - Group 1
//  300   SampleApp_Flash_DstAddr.addrMode = (afAddrMode_t)afAddrGroup;
        MOV       DPTR,#SampleApp_Flash_DstAddr + 8
        MOV       A,#0x1
        MOVX      @DPTR,A
//  301   SampleApp_Flash_DstAddr.endPoint = SAMPLEAPP_ENDPOINT;
        INC       DPTR
        MOV       A,#0x14
        MOVX      @DPTR,A
//  302   SampleApp_Flash_DstAddr.addr.shortAddr = SAMPLEAPP_FLASH_GROUP;
        MOV       DPTR,#SampleApp_Flash_DstAddr
        MOV       A,#0x1
        MOVX      @DPTR,A
        INC       DPTR
        CLR       A
        MOVX      @DPTR,A
//  303   
//  304   SampleApp_Broadcast.addrMode = (afAddrMode_t)AddrBroadcast;
        MOV       DPTR,#SampleApp_Broadcast + 8
        MOV       A,#0xf
        MOVX      @DPTR,A
//  305   SampleApp_Broadcast.endPoint = SAMPLEAPP_ENDPOINT;
        INC       DPTR
        MOV       A,#0x14
        MOVX      @DPTR,A
//  306   SampleApp_Broadcast.addr.shortAddr = 0xFFFF;
        MOV       DPTR,#SampleApp_Broadcast
        MOV       A,#-0x1
        MOVX      @DPTR,A
        INC       DPTR
        MOVX      @DPTR,A
//  307 
//  308   // Fill out the endpoint description.
//  309   SampleApp_epDesc.endPoint = SAMPLEAPP_ENDPOINT;
        MOV       DPTR,#SampleApp_epDesc
        MOV       A,#0x14
        MOVX      @DPTR,A
//  310   SampleApp_epDesc.task_id = &SampleApp_TaskID;
        INC       DPTR
        MOV       A,#SampleApp_TaskID & 0xff
        MOVX      @DPTR,A
        INC       DPTR
        MOV       A,#(SampleApp_TaskID >> 8) & 0xff
        MOVX      @DPTR,A
//  311   SampleApp_epDesc.simpleDesc
//  312             = (SimpleDescriptionFormat_t *)&SampleApp_SimpleDesc;
        INC       DPTR
        MOV       A,#SampleApp_SimpleDesc & 0xff
        MOVX      @DPTR,A
        INC       DPTR
        MOV       A,#(SampleApp_SimpleDesc >> 8) & 0xff
        MOVX      @DPTR,A
//  313   SampleApp_epDesc.latencyReq = noLatencyReqs;
        INC       DPTR
        CLR       A
        LCALL     ?Subroutine4 & 0xFFFF
//  314 
//  315   // Register the endpoint description with the AF
//  316   afRegister( &SampleApp_epDesc );
//  317 
//  318   // Register for all key events - This app will handle all key events
//  319   RegisterForKeys( SampleApp_TaskID );
??CrossCallReturnLabel_0:
        ; Setup parameters for call to function RegisterForKeys
        MOV       DPTR,#SampleApp_TaskID
        MOVX      A,@DPTR
        MOV       R1,A
        LCALL     `??RegisterForKeys::?relay`; Banked call to: RegisterForKeys
//  320 
//  321   // By default, all devices start out in Group 1
//  322   SampleApp_Group.ID = 0x0001;
        MOV       DPTR,#SampleApp_Group
        MOV       A,#0x1
        MOVX      @DPTR,A
        INC       DPTR
        CLR       A
        MOVX      @DPTR,A
//  323   osal_memcpy( SampleApp_Group.name, "Group 1", 7  );
        ; Setup parameters for call to function osal_memcpy
        MOV       ?V0,#`?<Constant "Group 1">` & 0xff
        MOV       ?V1,#(`?<Constant "Group 1">` >> 8) & 0xff
        MOV       ?V2,A
        MOV       R0,#?V0
        LCALL     ?PUSH_XSTACK_I_THREE
          CFI CFA_XSP16 add(XSP16, 43)
        MOV       R4,#0x7
        MOV       R5,#0x0
        MOV       R2,#(SampleApp_Group + 2) & 0xff
        MOV       R3,#((SampleApp_Group + 2) >> 8) & 0xff
        LCALL     `??osal_memcpy::?relay`; Banked call to: osal_memcpy
        MOV       A,#0x3
        LCALL     ?DEALLOC_XSTACK8
          CFI CFA_XSP16 add(XSP16, 40)
//  324   aps_AddGroup( SAMPLEAPP_ENDPOINT, &SampleApp_Group );
        ; Setup parameters for call to function aps_AddGroup
        MOV       R2,#SampleApp_Group & 0xff
        MOV       R3,#(SampleApp_Group >> 8) & 0xff
        MOV       R1,#0x14
        LCALL     `??aps_AddGroup::?relay`; Banked call to: aps_AddGroup
//  325   
//  326   // Serial initialization start 
//  327   halUARTCfg_t uartConfig;
//  328 
//  329   SampleApp_TaskID = task_id;
        MOV       A,R6
        MOV       DPTR,#SampleApp_TaskID
        MOVX      @DPTR,A
//  330   SampleApp_RxSeq = 0xC3;
        MOV       DPTR,#SampleApp_RxSeq
        MOV       A,#-0x3d
        LCALL     ?Subroutine4 & 0xFFFF
//  331 
//  332   afRegister( (endPointDesc_t *)&SampleApp_epDesc );
//  333 
//  334   RegisterForKeys( task_id );
??CrossCallReturnLabel_1:
        ; Setup parameters for call to function RegisterForKeys
        MOV       A,R6
        MOV       R1,A
        LCALL     `??RegisterForKeys::?relay`; Banked call to: RegisterForKeys
//  335 
//  336   uartConfig.configured           = TRUE;              // 2x30 don't care - see uart driver.
        MOV       DPL,?XSP + 0
        MOV       DPH,?XSP + 1
        MOV       A,#0x1
        MOVX      @DPTR,A
//  337   uartConfig.baudRate             = SAMPLE_APP_BAUD;
        LCALL     ?XSTACK_DISP0_8
        CLR       A
        MOVX      @DPTR,A
//  338   uartConfig.flowControl          = TRUE;
        MOV       A,#0x2
        LCALL     ?XSTACK_DISP0_8
        MOV       A,#0x1
        MOVX      @DPTR,A
//  339   uartConfig.flowControlThreshold = SAMPLE_APP_THRESH; // 2x30 don't care - see uart driver.
        MOV       A,#0x3
        LCALL     ?XSTACK_DISP0_8
        MOV       A,#0x40
        MOVX      @DPTR,A
        INC       DPTR
        CLR       A
        MOVX      @DPTR,A
//  340   uartConfig.rx.maxBufSize        = SAMPLE_APP_RX_SZ;  // 2x30 don't care - see uart driver.
        MOV       A,#0xa
        LCALL     ?XSTACK_DISP0_8
        MOV       A,#-0x80
        MOVX      @DPTR,A
        INC       DPTR
        CLR       A
        MOVX      @DPTR,A
//  341   uartConfig.tx.maxBufSize        = SAMPLE_APP_TX_SZ;  // 2x30 don't care - see uart driver.
        MOV       A,#0x12
        LCALL     ?XSTACK_DISP0_8
        MOV       A,#-0x70
        MOVX      @DPTR,A
        INC       DPTR
        MOV       A,#0x1
        MOVX      @DPTR,A
//  342   uartConfig.idleTimeout          = SAMPLE_APP_IDLE;   // 2x30 don't care - see uart driver.
        MOV       A,#0x5
        LCALL     ?XSTACK_DISP0_8
        MOV       A,#0x6
        MOVX      @DPTR,A
//  343   uartConfig.intEnable            = TRUE;              // 2x30 don't care - see uart driver.
        MOV       A,#0x16
        LCALL     ?XSTACK_DISP0_8
        MOV       A,#0x1
        MOVX      @DPTR,A
//  344   uartConfig.callBackFunc         = SampleApp_CallBack;
        MOV       A,#0x1b
        LCALL     ?XSTACK_DISP0_8
        MOV       A,#`??SampleApp_CallBack::?relay` & 0xff
        MOVX      @DPTR,A
        INC       DPTR
        MOV       A,#(`??SampleApp_CallBack::?relay` >> 8) & 0xff
        MOVX      @DPTR,A
//  345   HalUARTOpen (SAMPLE_APP_PORT, &uartConfig);
        ; Setup parameters for call to function HalUARTOpen
        MOV       R2,?XSP + 0
        MOV       R3,?XSP + 1
        MOV       R1,#0x0
        LCALL     `??HalUARTOpen::?relay`; Banked call to: HalUARTOpen
//  346   // Serial Initialization end
//  347 
//  348 #if defined ( LCD_SUPPORTED )
//  349   HalLcdWriteString( "SerialApp+Labs", HAL_LCD_LINE_1 );
        ; Setup parameters for call to function HalLcdWriteString
        MOV       R1,#0x1
        MOV       R2,#`?<Constant "SerialApp+Labs">` & 0xff
        MOV       R3,#(`?<Constant "SerialApp+Labs">` >> 8) & 0xff
        LCALL     `??HalLcdWriteString::?relay`; Banked call to: HalLcdWriteString
//  350 #endif
//  351 }
        MOV       A,#0x1d
        LCALL     ?DEALLOC_XSTACK8
          CFI EndBlock cfiBlock0
        REQUIRE ?Subroutine0
        ; // Fall through to label ?Subroutine0

        RSEG BANKED_CODE:HUGECODE:NOROOT(0)
?Subroutine0:
          CFI Block cfiBlock1 Using cfiCommon0
          CFI NoFunction
          CFI CFA_SP SP+0
          CFI CFA_XSP16 add(XSP16, 11)
          CFI VB load(1, XDATA, add(CFA_XSP16, literal(-10)))
          CFI DPL0 load(1, XDATA, add(CFA_XSP16, literal(-2)))
          CFI DPH0 load(1, XDATA, add(CFA_XSP16, literal(-1)))
          CFI R6 load(1, XDATA, add(CFA_XSP16, literal(-11)))
          CFI R7 load(1, XDATA, add(CFA_XSP16, literal(-6)))
          CFI V0 load(1, XDATA, add(CFA_XSP16, literal(-9)))
          CFI V1 load(1, XDATA, add(CFA_XSP16, literal(-8)))
          CFI V2 load(1, XDATA, add(CFA_XSP16, literal(-7)))
          CFI ?BRET_EXT load(1, XDATA, add(CFA_XSP16, literal(-3)))
          CFI ?RET_HIGH load(1, XDATA, add(CFA_XSP16, literal(-4)))
          CFI ?RET_LOW load(1, XDATA, add(CFA_XSP16, literal(-5)))
        MOV       R7,#0x3
        LJMP      ?BANKED_LEAVE_XDATA
          CFI EndBlock cfiBlock1

        RSEG BANKED_CODE:HUGECODE:NOROOT(0)
?Subroutine4:
          CFI Block cfiCond2 Using cfiCommon0
          CFI Function SampleApp_Init
          CFI Conditional ??CrossCallReturnLabel_0
          CFI R6 load(1, XDATA, add(CFA_XSP16, literal(-11)))
          CFI VB load(1, XDATA, add(CFA_XSP16, literal(-10)))
          CFI V0 load(1, XDATA, add(CFA_XSP16, literal(-9)))
          CFI V1 load(1, XDATA, add(CFA_XSP16, literal(-8)))
          CFI V2 load(1, XDATA, add(CFA_XSP16, literal(-7)))
          CFI R7 load(1, XDATA, add(CFA_XSP16, literal(-6)))
          CFI ?RET_LOW load(1, XDATA, add(CFA_XSP16, literal(-5)))
          CFI ?RET_HIGH load(1, XDATA, add(CFA_XSP16, literal(-4)))
          CFI ?BRET_EXT load(1, XDATA, add(CFA_XSP16, literal(-3)))
          CFI DPL0 load(1, XDATA, add(CFA_XSP16, literal(-2)))
          CFI DPH0 load(1, XDATA, add(CFA_XSP16, literal(-1)))
          CFI CFA_SP SP+-2
          CFI CFA_XSP16 add(XSP16, 40)
          CFI Block cfiCond3 Using cfiCommon0
          CFI (cfiCond3) Function SampleApp_Init
          CFI (cfiCond3) Conditional ??CrossCallReturnLabel_1
          CFI (cfiCond3) R6 load(1, XDATA, add(CFA_XSP16, literal(-11)))
          CFI (cfiCond3) VB load(1, XDATA, add(CFA_XSP16, literal(-10)))
          CFI (cfiCond3) V0 load(1, XDATA, add(CFA_XSP16, literal(-9)))
          CFI (cfiCond3) V1 load(1, XDATA, add(CFA_XSP16, literal(-8)))
          CFI (cfiCond3) V2 load(1, XDATA, add(CFA_XSP16, literal(-7)))
          CFI (cfiCond3) R7 load(1, XDATA, add(CFA_XSP16, literal(-6)))
          CFI (cfiCond3) ?RET_LOW load(1, XDATA, add(CFA_XSP16, literal(-5)))
          CFI (cfiCond3) ?RET_HIGH load(1, XDATA, add(CFA_XSP16, literal(-4)))
          CFI (cfiCond3) ?BRET_EXT load(1, XDATA, add(CFA_XSP16, literal(-3)))
          CFI (cfiCond3) DPL0 load(1, XDATA, add(CFA_XSP16, literal(-2)))
          CFI (cfiCond3) DPH0 load(1, XDATA, add(CFA_XSP16, literal(-1)))
          CFI (cfiCond3) CFA_SP SP+-2
          CFI (cfiCond3) CFA_XSP16 add(XSP16, 40)
          CFI Block cfiPicker4 Using cfiCommon1
          CFI (cfiPicker4) NoFunction
          CFI (cfiPicker4) Picker
        MOVX      @DPTR,A
        ; Setup parameters for call to function afRegister
        ; Setup parameters for call to function afRegister
        MOV       R2,#SampleApp_epDesc & 0xff
        MOV       R3,#(SampleApp_epDesc >> 8) & 0xff
        LCALL     `??afRegister::?relay`; Banked call to: afRegister
        RET
          CFI EndBlock cfiCond2
          CFI EndBlock cfiCond3
          CFI EndBlock cfiPicker4
//  352 
//  353 /*********************************************************************
//  354  * @fn      SampleApp_ProcessEvent
//  355  *
//  356  * @brief   Generic Application Task event processor.  This function
//  357  *          is called to process all events for the task.  Events
//  358  *          include timers, messages and any other user defined events.
//  359  *
//  360  * @param   task_id  - The OSAL assigned task ID.
//  361  * @param   events - events to process.  This is a bit map and can
//  362  *                   contain more than one event.
//  363  *
//  364  * @return  none
//  365  */

        RSEG BANKED_CODE:HUGECODE:NOROOT(0)
//  366 uint16 SampleApp_ProcessEvent( uint8 task_id, uint16 events )
SampleApp_ProcessEvent:
          CFI Block cfiBlock5 Using cfiCommon0
          CFI Function SampleApp_ProcessEvent
        CODE
//  367 {
        FUNCALL SampleApp_ProcessEvent, osal_msg_receive
        LOCFRAME ISTACK, 0, STACK
        LOCFRAME PSTACK, 0, STACK
        LOCFRAME XSTACK, 12, STACK
        LOCFRAME IOVERLAY, 0, STATIC
        LOCFRAME DOVERLAY, 0, STATIC
        ARGFRAME ISTACK, 0, STACK
        ARGFRAME PSTACK, 0, STACK
        ARGFRAME XSTACK, 12, STACK
        ARGFRAME IOVERLAY, 0, STATIC
        ARGFRAME DOVERLAY, 0, STATIC
        FUNCALL SampleApp_ProcessEvent, osal_start_timerEx
        LOCFRAME ISTACK, 0, STACK
        LOCFRAME PSTACK, 0, STACK
        LOCFRAME XSTACK, 12, STACK
        LOCFRAME IOVERLAY, 0, STATIC
        LOCFRAME DOVERLAY, 0, STATIC
        ARGFRAME ISTACK, 0, STACK
        ARGFRAME PSTACK, 0, STACK
        ARGFRAME XSTACK, 12, STACK
        ARGFRAME IOVERLAY, 0, STATIC
        ARGFRAME DOVERLAY, 0, STATIC
        FUNCALL SampleApp_ProcessEvent, osal_msg_deallocate
        LOCFRAME ISTACK, 0, STACK
        LOCFRAME PSTACK, 0, STACK
        LOCFRAME XSTACK, 12, STACK
        LOCFRAME IOVERLAY, 0, STATIC
        LOCFRAME DOVERLAY, 0, STATIC
        ARGFRAME ISTACK, 0, STACK
        ARGFRAME PSTACK, 0, STACK
        ARGFRAME XSTACK, 12, STACK
        ARGFRAME IOVERLAY, 0, STATIC
        ARGFRAME DOVERLAY, 0, STATIC
        FUNCALL SampleApp_ProcessEvent, osal_msg_receive
        LOCFRAME ISTACK, 0, STACK
        LOCFRAME PSTACK, 0, STACK
        LOCFRAME XSTACK, 12, STACK
        LOCFRAME IOVERLAY, 0, STATIC
        LOCFRAME DOVERLAY, 0, STATIC
        ARGFRAME ISTACK, 0, STACK
        ARGFRAME PSTACK, 0, STACK
        ARGFRAME XSTACK, 12, STACK
        ARGFRAME IOVERLAY, 0, STATIC
        ARGFRAME DOVERLAY, 0, STATIC
        FUNCALL SampleApp_ProcessEvent, SampleApp_HandleKeys
        LOCFRAME ISTACK, 0, STACK
        LOCFRAME PSTACK, 0, STACK
        LOCFRAME XSTACK, 12, STACK
        LOCFRAME IOVERLAY, 0, STATIC
        LOCFRAME DOVERLAY, 0, STATIC
        ARGFRAME ISTACK, 0, STACK
        ARGFRAME PSTACK, 0, STACK
        ARGFRAME XSTACK, 12, STACK
        ARGFRAME IOVERLAY, 0, STATIC
        ARGFRAME DOVERLAY, 0, STATIC
        FUNCALL SampleApp_ProcessEvent, SampleApp_MessageMSGCB
        LOCFRAME ISTACK, 0, STACK
        LOCFRAME PSTACK, 0, STACK
        LOCFRAME XSTACK, 12, STACK
        LOCFRAME IOVERLAY, 0, STATIC
        LOCFRAME DOVERLAY, 0, STATIC
        ARGFRAME ISTACK, 0, STACK
        ARGFRAME PSTACK, 0, STACK
        ARGFRAME XSTACK, 12, STACK
        ARGFRAME IOVERLAY, 0, STATIC
        ARGFRAME DOVERLAY, 0, STATIC
        FUNCALL SampleApp_ProcessEvent, SampleApp_SendPeriodicMessage
        LOCFRAME ISTACK, 0, STACK
        LOCFRAME PSTACK, 0, STACK
        LOCFRAME XSTACK, 12, STACK
        LOCFRAME IOVERLAY, 0, STATIC
        LOCFRAME DOVERLAY, 0, STATIC
        ARGFRAME ISTACK, 0, STACK
        ARGFRAME PSTACK, 0, STACK
        ARGFRAME XSTACK, 12, STACK
        ARGFRAME IOVERLAY, 0, STATIC
        ARGFRAME DOVERLAY, 0, STATIC
        FUNCALL SampleApp_ProcessEvent, osal_rand
        LOCFRAME ISTACK, 0, STACK
        LOCFRAME PSTACK, 0, STACK
        LOCFRAME XSTACK, 12, STACK
        LOCFRAME IOVERLAY, 0, STATIC
        LOCFRAME DOVERLAY, 0, STATIC
        ARGFRAME ISTACK, 0, STACK
        ARGFRAME PSTACK, 0, STACK
        ARGFRAME XSTACK, 12, STACK
        ARGFRAME IOVERLAY, 0, STATIC
        ARGFRAME DOVERLAY, 0, STATIC
        FUNCALL SampleApp_ProcessEvent, osal_start_timerEx
        LOCFRAME ISTACK, 0, STACK
        LOCFRAME PSTACK, 0, STACK
        LOCFRAME XSTACK, 12, STACK
        LOCFRAME IOVERLAY, 0, STATIC
        LOCFRAME DOVERLAY, 0, STATIC
        ARGFRAME ISTACK, 0, STACK
        ARGFRAME PSTACK, 0, STACK
        ARGFRAME XSTACK, 12, STACK
        ARGFRAME IOVERLAY, 0, STATIC
        ARGFRAME DOVERLAY, 0, STATIC
        REQUIRE ?V0
        REQUIRE ?V1
        REQUIRE ?V2
        REQUIRE ?V3
        MOV       A,#-0xc
        LCALL     ?BANKED_ENTER_XDATA
          CFI DPH0 load(1, XDATA, add(CFA_XSP16, literal(-1)))
          CFI DPL0 load(1, XDATA, add(CFA_XSP16, literal(-2)))
          CFI ?BRET_EXT load(1, XDATA, add(CFA_XSP16, literal(-3)))
          CFI ?RET_HIGH load(1, XDATA, add(CFA_XSP16, literal(-4)))
          CFI ?RET_LOW load(1, XDATA, add(CFA_XSP16, literal(-5)))
          CFI R7 load(1, XDATA, add(CFA_XSP16, literal(-6)))
          CFI V3 load(1, XDATA, add(CFA_XSP16, literal(-7)))
          CFI V2 load(1, XDATA, add(CFA_XSP16, literal(-8)))
          CFI V1 load(1, XDATA, add(CFA_XSP16, literal(-9)))
          CFI V0 load(1, XDATA, add(CFA_XSP16, literal(-10)))
          CFI VB load(1, XDATA, add(CFA_XSP16, literal(-11)))
          CFI R6 load(1, XDATA, add(CFA_XSP16, literal(-12)))
          CFI CFA_SP SP+0
          CFI CFA_XSP16 add(XSP16, 12)
        ; Saved register size: 12
        ; Auto size: 0
        MOV       A,R2
        MOV       R6,A
        MOV       A,R3
        MOV       R7,A
//  368   afIncomingMSGPacket_t *MSGpkt;
//  369   (void)task_id;  // Intentionally unreferenced parameter
//  370 
//  371   if ( events & SYS_EVENT_MSG )
        ANL       A,#0x80
        JZ        ??SampleApp_ProcessEvent_0
//  372   {
//  373     MSGpkt = (afIncomingMSGPacket_t *)osal_msg_receive( SampleApp_TaskID );
        ; Setup parameters for call to function osal_msg_receive
        SJMP      ??SampleApp_ProcessEvent_1
//  374     while ( MSGpkt )
//  375     {
//  376       switch ( MSGpkt->hdr.event )
//  377       {
//  378         // Received when a key is pressed
//  379         case KEY_CHANGE:
//  380           SampleApp_HandleKeys( ((keyChange_t *)MSGpkt)->state, ((keyChange_t *)MSGpkt)->keys );
//  381           break;
//  382 
//  383         // Received when a messages is received (OTA) for this endpoint
//  384         case AF_INCOMING_MSG_CMD:
//  385           SampleApp_MessageMSGCB( MSGpkt );
//  386           break;
//  387 
//  388         // Received whenever the device changes state in the network
//  389         case ZDO_STATE_CHANGE:
//  390           SampleApp_NwkState = (devStates_t)(MSGpkt->hdr.status);
??SampleApp_ProcessEvent_2:
        INC       DPTR
        MOVX      A,@DPTR
        MOV       DPTR,#SampleApp_NwkState
        MOVX      @DPTR,A
//  391           if ( (SampleApp_NwkState == DEV_ZB_COORD)
//  392               || (SampleApp_NwkState == DEV_ROUTER)
//  393               || (SampleApp_NwkState == DEV_END_DEVICE) )
        XRL       A,#0x9
        JZ        ??SampleApp_ProcessEvent_3
        MOVX      A,@DPTR
        XRL       A,#0x7
        JZ        ??SampleApp_ProcessEvent_3
        MOVX      A,@DPTR
        XRL       A,#0x6
        JNZ       ??SampleApp_ProcessEvent_4
//  394           {
//  395             // Start sending the periodic message in a regular interval.
//  396             osal_start_timerEx( SampleApp_TaskID,
//  397                               SAMPLEAPP_SEND_PERIODIC_MSG_EVT,
//  398                               SAMPLEAPP_SEND_PERIODIC_MSG_TIMEOUT );
??SampleApp_ProcessEvent_3:
        ; Setup parameters for call to function osal_start_timerEx
        MOV       R4,#-0x78
        MOV       R5,#0x13
        MOV       R2,#0x1
        MOV       R3,#0x0
        MOV       DPTR,#SampleApp_TaskID
        MOVX      A,@DPTR
        MOV       R1,A
        LCALL     `??osal_start_timerEx::?relay`; Banked call to: osal_start_timerEx
//  399           }
//  400           else
//  401           {
//  402             // Device is no longer in the network
//  403           }
//  404           break;
//  405 
//  406         default:
//  407           break;
//  408       }
//  409 
//  410       // Release the memory
//  411       osal_msg_deallocate( (uint8 *)MSGpkt );
??SampleApp_ProcessEvent_4:
        ; Setup parameters for call to function osal_msg_deallocate
        MOV       R2,?V0
        MOV       R3,?V1
        LCALL     `??osal_msg_deallocate::?relay`; Banked call to: osal_msg_deallocate
//  412 
//  413       // Next - if one is available
//  414       MSGpkt = (afIncomingMSGPacket_t *)osal_msg_receive( SampleApp_TaskID );
        ; Setup parameters for call to function osal_msg_receive
??SampleApp_ProcessEvent_1:
        MOV       DPTR,#SampleApp_TaskID
        MOVX      A,@DPTR
        MOV       R1,A
        LCALL     `??osal_msg_receive::?relay`; Banked call to: osal_msg_receive
        MOV       ?V0,R2
        MOV       ?V1,R3
        MOV       A,?V0
        ORL       A,?V1
        JZ        ??SampleApp_ProcessEvent_5
        MOV       DPL,?V0
        MOV       DPH,?V1
        MOVX      A,@DPTR
        ADD       A,#-0x1a
        JZ        ??SampleApp_ProcessEvent_6
        ADD       A,#0x5a
        JZ        ??SampleApp_ProcessEvent_7
        ADD       A,#-0x11
        JZ        ??SampleApp_ProcessEvent_2
        SJMP      ??SampleApp_ProcessEvent_4
??SampleApp_ProcessEvent_7:
        ; Setup parameters for call to function SampleApp_HandleKeys
        INC       DPTR
        INC       DPTR
        INC       DPTR
        MOVX      A,@DPTR
        MOV       R2,A
        MOV       DPL,?V0
        MOV       DPH,?V1
        INC       DPTR
        INC       DPTR
        MOVX      A,@DPTR
        MOV       R1,A
        LCALL     `??SampleApp_HandleKeys::?relay`; Banked call to: SampleApp_HandleKeys
        SJMP      ??SampleApp_ProcessEvent_4
??SampleApp_ProcessEvent_6:
        ; Setup parameters for call to function SampleApp_MessageMSGCB
        MOV       R2,?V0
        MOV       R3,?V1
        LCALL     `??SampleApp_MessageMSGCB::?relay`; Banked call to: SampleApp_MessageMSGCB
        SJMP      ??SampleApp_ProcessEvent_4
//  415     }
//  416     
//  417     
//  418 
//  419     // return unprocessed events
//  420     return (events ^ SYS_EVENT_MSG);
??SampleApp_ProcessEvent_5:
        MOV       A,R6
        MOV       R2,A
        MOV       A,R7
        XRL       A,#0x80
        SJMP      ??SampleApp_ProcessEvent_8
//  421   }
//  422 
//  423   // Send a message out - This event is generated by a timer
//  424   //  (setup in SampleApp_Init()).
//  425   if ( events & SAMPLEAPP_SEND_PERIODIC_MSG_EVT )
??SampleApp_ProcessEvent_0:
        MOV       A,R2
        MOV       C,0xE0 /* A   */.0
        JNC       ??SampleApp_ProcessEvent_9
//  426   {
//  427     // Send the periodic message
//  428     SampleApp_SendPeriodicMessage();
        ; Setup parameters for call to function SampleApp_SendPeriodicMessage
        LCALL     `??SampleApp_SendPeriodicMessage::?relay`; Banked call to: SampleApp_SendPeriodicMessage
//  429 
//  430     // Setup to send message again in normal period (+ a little jitter)
//  431     osal_start_timerEx( SampleApp_TaskID, SAMPLEAPP_SEND_PERIODIC_MSG_EVT,
//  432         (SAMPLEAPP_SEND_PERIODIC_MSG_TIMEOUT + (osal_rand() & 0x00FF)) );
        ; Setup parameters for call to function osal_rand
        LCALL     `??osal_rand::?relay`; Banked call to: osal_rand
        ; Setup parameters for call to function osal_start_timerEx
        MOV       A,R2
        ADD       A,#-0x78
        MOV       R4,A
        CLR       A
        ADDC      A,#0x13
        MOV       R5,A
        MOV       R2,#0x1
        MOV       R3,#0x0
        MOV       DPTR,#SampleApp_TaskID
        MOVX      A,@DPTR
        MOV       R1,A
        LCALL     `??osal_start_timerEx::?relay`; Banked call to: osal_start_timerEx
//  433 
//  434     // return unprocessed events
//  435     return (events ^ SAMPLEAPP_SEND_PERIODIC_MSG_EVT);
        MOV       A,R6
        XRL       A,#0x1
        MOV       R2,A
        MOV       A,R7
??SampleApp_ProcessEvent_8:
        MOV       R3,A
        SJMP      ??SampleApp_ProcessEvent_10
//  436   }
//  437 
//  438   // Discard unknown events
//  439   return 0;
??SampleApp_ProcessEvent_9:
        MOV       R2,#0x0
        MOV       R3,#0x0
??SampleApp_ProcessEvent_10:
        MOV       R7,#0x4
        LJMP      ?BANKED_LEAVE_XDATA
//  440 }
          CFI EndBlock cfiBlock5
//  441 
//  442 /*********************************************************************
//  443  * Event Generation Functions
//  444  */
//  445 /*********************************************************************
//  446  * @fn      SampleApp_HandleKeys
//  447  *
//  448  * @brief   Handles all key events for this device.
//  449  *
//  450  * @param   shift - true if in shift/alt.
//  451  * @param   keys - bit field for key events. Valid entries:
//  452  *                 HAL_KEY_SW_2
//  453  *                 HAL_KEY_SW_1
//  454  *
//  455  * @return  none
//  456  */
//  457 
//  458 typedef struct
//  459 {
//  460   int16 temperature;
//  461   int16 water_level;
//  462   int32 flow_rate;
//  463   uint8 PH;
//  464   uint8 batt_level;
//  465   int16 GNSS_latitude;
//  466   int16 GNSS_longitude;
//  467   
//  468   bool sensors_okay;
//  469   bool node_okay;
//  470   uint8 error_state;
//  471   char text[10];
//  472 } packet_measurements;
//  473 

        RSEG XDATA_I:XDATA:NOROOT(0)
//  474 packet_measurements receiveData = {0,0,0,0,0,0,0,0,0,0,"nothing"};
receiveData:
        DATA8
        DS 27
        REQUIRE `?<Initializer for receiveData>`
        REQUIRE __INIT_XDATA_I
//  475 

        RSEG XDATA_Z:XDATA:NOROOT(0)
        DATA8
//  476 char serialOut[128] = "";
serialOut:
        DS 128
        REQUIRE __INIT_XDATA_Z

        RSEG XDATA_Z:XDATA:NOROOT(0)
        DATA8
//  477 char serialBuffer[125] = "";
serialBuffer:
        DS 125
        REQUIRE __INIT_XDATA_Z
//  478 

        RSEG BANKED_CODE:HUGECODE:NOROOT(0)
//  479 void SampleApp_HandleKeys( uint8 shift, uint8 keys )
SampleApp_HandleKeys:
          CFI Block cfiBlock6 Using cfiCommon0
          CFI Function SampleApp_HandleKeys
        CODE
//  480 {
        FUNCALL SampleApp_HandleKeys, HalLcdWriteStringValue
        LOCFRAME ISTACK, 0, STACK
        LOCFRAME PSTACK, 0, STACK
        LOCFRAME XSTACK, 12, STACK
        LOCFRAME IOVERLAY, 0, STATIC
        LOCFRAME DOVERLAY, 0, STATIC
        ARGFRAME ISTACK, 0, STACK
        ARGFRAME PSTACK, 0, STACK
        ARGFRAME XSTACK, 12, STACK
        ARGFRAME IOVERLAY, 0, STATIC
        ARGFRAME DOVERLAY, 0, STATIC
        FUNCALL SampleApp_HandleKeys, HalLcdWriteStringValue
        LOCFRAME ISTACK, 0, STACK
        LOCFRAME PSTACK, 0, STACK
        LOCFRAME XSTACK, 12, STACK
        LOCFRAME IOVERLAY, 0, STATIC
        LOCFRAME DOVERLAY, 0, STATIC
        ARGFRAME ISTACK, 0, STACK
        ARGFRAME PSTACK, 0, STACK
        ARGFRAME XSTACK, 12, STACK
        ARGFRAME IOVERLAY, 0, STATIC
        ARGFRAME DOVERLAY, 0, STATIC
        FUNCALL SampleApp_HandleKeys, HalLcdWriteStringValue
        LOCFRAME ISTACK, 0, STACK
        LOCFRAME PSTACK, 0, STACK
        LOCFRAME XSTACK, 12, STACK
        LOCFRAME IOVERLAY, 0, STATIC
        LOCFRAME DOVERLAY, 0, STATIC
        ARGFRAME ISTACK, 0, STACK
        ARGFRAME PSTACK, 0, STACK
        ARGFRAME XSTACK, 12, STACK
        ARGFRAME IOVERLAY, 0, STATIC
        ARGFRAME DOVERLAY, 0, STATIC
        FUNCALL SampleApp_HandleKeys, HalLcdWriteStringValue
        LOCFRAME ISTACK, 0, STACK
        LOCFRAME PSTACK, 0, STACK
        LOCFRAME XSTACK, 12, STACK
        LOCFRAME IOVERLAY, 0, STATIC
        LOCFRAME DOVERLAY, 0, STATIC
        ARGFRAME ISTACK, 0, STACK
        ARGFRAME PSTACK, 0, STACK
        ARGFRAME XSTACK, 12, STACK
        ARGFRAME IOVERLAY, 0, STATIC
        ARGFRAME DOVERLAY, 0, STATIC
        FUNCALL SampleApp_HandleKeys, HalLcdWriteStringValue
        LOCFRAME ISTACK, 0, STACK
        LOCFRAME PSTACK, 0, STACK
        LOCFRAME XSTACK, 12, STACK
        LOCFRAME IOVERLAY, 0, STATIC
        LOCFRAME DOVERLAY, 0, STATIC
        ARGFRAME ISTACK, 0, STACK
        ARGFRAME PSTACK, 0, STACK
        ARGFRAME XSTACK, 12, STACK
        ARGFRAME IOVERLAY, 0, STATIC
        ARGFRAME DOVERLAY, 0, STATIC
        FUNCALL SampleApp_HandleKeys, HalLcdWriteStringValue
        LOCFRAME ISTACK, 0, STACK
        LOCFRAME PSTACK, 0, STACK
        LOCFRAME XSTACK, 12, STACK
        LOCFRAME IOVERLAY, 0, STATIC
        LOCFRAME DOVERLAY, 0, STATIC
        ARGFRAME ISTACK, 0, STACK
        ARGFRAME PSTACK, 0, STACK
        ARGFRAME XSTACK, 12, STACK
        ARGFRAME IOVERLAY, 0, STATIC
        ARGFRAME DOVERLAY, 0, STATIC
        FUNCALL SampleApp_HandleKeys, HalLcdWriteStringValue
        LOCFRAME ISTACK, 0, STACK
        LOCFRAME PSTACK, 0, STACK
        LOCFRAME XSTACK, 12, STACK
        LOCFRAME IOVERLAY, 0, STATIC
        LOCFRAME DOVERLAY, 0, STATIC
        ARGFRAME ISTACK, 0, STACK
        ARGFRAME PSTACK, 0, STACK
        ARGFRAME XSTACK, 12, STACK
        ARGFRAME IOVERLAY, 0, STATIC
        ARGFRAME DOVERLAY, 0, STATIC
        FUNCALL SampleApp_HandleKeys, HalLcdWriteStringValue
        LOCFRAME ISTACK, 0, STACK
        LOCFRAME PSTACK, 0, STACK
        LOCFRAME XSTACK, 12, STACK
        LOCFRAME IOVERLAY, 0, STATIC
        LOCFRAME DOVERLAY, 0, STATIC
        ARGFRAME ISTACK, 0, STACK
        ARGFRAME PSTACK, 0, STACK
        ARGFRAME XSTACK, 12, STACK
        ARGFRAME IOVERLAY, 0, STATIC
        ARGFRAME DOVERLAY, 0, STATIC
        FUNCALL SampleApp_HandleKeys, HalLcdWriteString
        LOCFRAME ISTACK, 0, STACK
        LOCFRAME PSTACK, 0, STACK
        LOCFRAME XSTACK, 11, STACK
        LOCFRAME IOVERLAY, 0, STATIC
        LOCFRAME DOVERLAY, 0, STATIC
        ARGFRAME ISTACK, 0, STACK
        ARGFRAME PSTACK, 0, STACK
        ARGFRAME XSTACK, 11, STACK
        ARGFRAME IOVERLAY, 0, STATIC
        ARGFRAME DOVERLAY, 0, STATIC
        FUNCALL SampleApp_HandleKeys, sprintf
        LOCFRAME ISTACK, 0, STACK
        LOCFRAME PSTACK, 0, STACK
        LOCFRAME XSTACK, 31, STACK
        LOCFRAME IOVERLAY, 0, STATIC
        LOCFRAME DOVERLAY, 0, STATIC
        ARGFRAME ISTACK, 0, STACK
        ARGFRAME PSTACK, 0, STACK
        ARGFRAME XSTACK, 31, STACK
        ARGFRAME IOVERLAY, 0, STATIC
        ARGFRAME DOVERLAY, 0, STATIC
        FUNCALL SampleApp_HandleKeys, HalUARTWrite
        LOCFRAME ISTACK, 0, STACK
        LOCFRAME PSTACK, 0, STACK
        LOCFRAME XSTACK, 11, STACK
        LOCFRAME IOVERLAY, 0, STATIC
        LOCFRAME DOVERLAY, 0, STATIC
        ARGFRAME ISTACK, 0, STACK
        ARGFRAME PSTACK, 0, STACK
        ARGFRAME XSTACK, 11, STACK
        ARGFRAME IOVERLAY, 0, STATIC
        ARGFRAME DOVERLAY, 0, STATIC
        REQUIRE ?V0
        REQUIRE ?V1
        REQUIRE ?V2
        MOV       A,#-0xb
        LCALL     ?BANKED_ENTER_XDATA
          CFI DPH0 load(1, XDATA, add(CFA_XSP16, literal(-1)))
          CFI DPL0 load(1, XDATA, add(CFA_XSP16, literal(-2)))
          CFI ?BRET_EXT load(1, XDATA, add(CFA_XSP16, literal(-3)))
          CFI ?RET_HIGH load(1, XDATA, add(CFA_XSP16, literal(-4)))
          CFI ?RET_LOW load(1, XDATA, add(CFA_XSP16, literal(-5)))
          CFI R7 load(1, XDATA, add(CFA_XSP16, literal(-6)))
          CFI V2 load(1, XDATA, add(CFA_XSP16, literal(-7)))
          CFI V1 load(1, XDATA, add(CFA_XSP16, literal(-8)))
          CFI V0 load(1, XDATA, add(CFA_XSP16, literal(-9)))
          CFI VB load(1, XDATA, add(CFA_XSP16, literal(-10)))
          CFI R6 load(1, XDATA, add(CFA_XSP16, literal(-11)))
          CFI CFA_SP SP+0
          CFI CFA_XSP16 add(XSP16, 11)
        ; Saved register size: 11
        ; Auto size: 0
        MOV       A,R2
        MOV       R6,A
//  481 
//  482   if ( keys & HAL_KEY_SW_1 )
        MOV       C,0xE0 /* A   */.0
        JNC       ??SampleApp_HandleKeys_0
//  483   {
//  484     HalLcdWriteStringValue( "Temperature:", receiveData.temperature, 10, HAL_LCD_LINE_1);
        ; Setup parameters for call to function HalLcdWriteStringValue
        MOV       ?V0,#0x1
        MOV       R0,#?V0
        LCALL     ?PUSH_XSTACK_I_ONE
          CFI CFA_XSP16 add(XSP16, 12)
        LCALL     ?Subroutine3 & 0xFFFF
??CrossCallReturnLabel_6:
        MOV       R2,#`?<Constant "Temperature:">` & 0xff
        MOV       R3,#(`?<Constant "Temperature:">` >> 8) & 0xff
        LCALL     ??Subroutine6_0 & 0xFFFF
??CrossCallReturnLabel_11:
        LCALL     ?DEALLOC_XSTACK8
          CFI CFA_XSP16 add(XSP16, 11)
//  485     HalLcdWriteStringValue( "Water Level:", receiveData.temperature, 10, HAL_LCD_LINE_2);
        ; Setup parameters for call to function HalLcdWriteStringValue
        MOV       ?V0,#0x2
        MOV       R0,#?V0
        LCALL     ?PUSH_XSTACK_I_ONE
          CFI CFA_XSP16 add(XSP16, 12)
        LCALL     ?Subroutine3 & 0xFFFF
??CrossCallReturnLabel_7:
        MOV       R2,#`?<Constant "Water Level:">` & 0xff
        MOV       R3,#(`?<Constant "Water Level:">` >> 8) & 0xff
        LCALL     ??Subroutine6_0 & 0xFFFF
??CrossCallReturnLabel_12:
        LCALL     ?DEALLOC_XSTACK8
          CFI CFA_XSP16 add(XSP16, 11)
//  486     HalLcdWriteStringValue( "Flow Rate:", receiveData.temperature, 10, HAL_LCD_LINE_3);        
        ; Setup parameters for call to function HalLcdWriteStringValue
        MOV       ?V0,#0x3
        MOV       R0,#?V0
        LCALL     ?PUSH_XSTACK_I_ONE
          CFI CFA_XSP16 add(XSP16, 12)
        LCALL     ?Subroutine3 & 0xFFFF
//  487   }
??CrossCallReturnLabel_8:
        MOV       R2,#`?<Constant "Flow Rate:">` & 0xff
        MOV       R3,#(`?<Constant "Flow Rate:">` >> 8) & 0xff
        LCALL     ??Subroutine6_0 & 0xFFFF
??CrossCallReturnLabel_13:
        LCALL     ?DEALLOC_XSTACK8
          CFI CFA_XSP16 add(XSP16, 11)
//  488 
//  489   if ( keys & HAL_KEY_SW_2 )
??SampleApp_HandleKeys_0:
        MOV       ?V0,#`?<Constant "Battery Level:">` & 0xff
        MOV       ?V1,#(`?<Constant "Battery Level:">` >> 8) & 0xff
        MOV       A,R6
        MOV       C,0xE0 /* A   */.1
        JNC       ??SampleApp_HandleKeys_1
//  490   {
//  491     HalLcdWriteStringValue( "pH:", receiveData.PH, 10, HAL_LCD_LINE_1);
        ; Setup parameters for call to function HalLcdWriteStringValue
        MOV       ?V2,#0x1
        MOV       R0,#?V2
        LCALL     ?PUSH_XSTACK_I_ONE
          CFI CFA_XSP16 add(XSP16, 12)
        MOV       R1,#0xa
        MOV       DPTR,#receiveData + 8
        MOVX      A,@DPTR
        MOV       R4,A
        MOV       R5,#0x0
        MOV       R2,#`?<Constant "pH:">` & 0xff
        MOV       R3,#(`?<Constant "pH:">` >> 8) & 0xff
        LCALL     ??Subroutine6_0 & 0xFFFF
??CrossCallReturnLabel_14:
        LCALL     ?DEALLOC_XSTACK8
          CFI CFA_XSP16 add(XSP16, 11)
//  492     HalLcdWriteStringValue( "Battery Level:", receiveData.batt_level, 10, HAL_LCD_LINE_2);
        ; Setup parameters for call to function HalLcdWriteStringValue
        MOV       ?V2,#0x2
        MOV       R0,#?V2
        LCALL     ?PUSH_XSTACK_I_ONE
          CFI CFA_XSP16 add(XSP16, 12)
        LCALL     ?Subroutine2 & 0xFFFF
??CrossCallReturnLabel_9:
        LCALL     ?DEALLOC_XSTACK8
          CFI CFA_XSP16 add(XSP16, 11)
//  493     HalLcdWriteStringValue( "Latitude:", receiveData.GNSS_latitude, 10, HAL_LCD_LINE_3);
        ; Setup parameters for call to function HalLcdWriteStringValue
        MOV       ?V2,#0x3
        MOV       R0,#?V2
        LCALL     ?PUSH_XSTACK_I_ONE
          CFI CFA_XSP16 add(XSP16, 12)
        MOV       R1,#0xa
        MOV       DPTR,#receiveData + 10
        LCALL     ??Subroutine5_0 & 0xFFFF
//  494   }
??CrossCallReturnLabel_2:
        MOV       R2,#`?<Constant "Latitude:">` & 0xff
        MOV       R3,#(`?<Constant "Latitude:">` >> 8) & 0xff
        LCALL     ??Subroutine6_0 & 0xFFFF
??CrossCallReturnLabel_15:
        LCALL     ?DEALLOC_XSTACK8
          CFI CFA_XSP16 add(XSP16, 11)
//  495   
//  496   if ( keys & HAL_KEY_SW_3 )
??SampleApp_HandleKeys_1:
        MOV       A,R6
        MOV       C,0xE0 /* A   */.4
        JNC       ??SampleApp_HandleKeys_2
//  497   {
//  498     HalLcdWriteStringValue( "Longitude:", receiveData.GNSS_longitude, 10, HAL_LCD_LINE_1);
        ; Setup parameters for call to function HalLcdWriteStringValue
        MOV       ?V2,#0x1
        MOV       R0,#?V2
        LCALL     ?PUSH_XSTACK_I_ONE
          CFI CFA_XSP16 add(XSP16, 12)
        MOV       R1,#0xa
        MOV       DPTR,#receiveData + 12
        LCALL     ??Subroutine5_0 & 0xFFFF
??CrossCallReturnLabel_3:
        MOV       R2,#`?<Constant "Longitude:">` & 0xff
        MOV       R3,#(`?<Constant "Longitude:">` >> 8) & 0xff
        LCALL     ??Subroutine6_0 & 0xFFFF
??CrossCallReturnLabel_16:
        LCALL     ?DEALLOC_XSTACK8
          CFI CFA_XSP16 add(XSP16, 11)
//  499     HalLcdWriteStringValue( "Battery Level:", receiveData.batt_level, 10, HAL_LCD_LINE_2);
        ; Setup parameters for call to function HalLcdWriteStringValue
        MOV       ?V2,#0x2
        MOV       R0,#?V2
        LCALL     ?PUSH_XSTACK_I_ONE
          CFI CFA_XSP16 add(XSP16, 12)
        LCALL     ?Subroutine2 & 0xFFFF
??CrossCallReturnLabel_10:
        LCALL     ?DEALLOC_XSTACK8
          CFI CFA_XSP16 add(XSP16, 11)
//  500     HalLcdWriteString( receiveData.text, HAL_LCD_LINE_3);
        ; Setup parameters for call to function HalLcdWriteString
        MOV       R1,#0x3
        MOV       R2,#(receiveData + 17) & 0xff
        MOV       R3,#((receiveData + 17) >> 8) & 0xff
        LCALL     `??HalLcdWriteString::?relay`; Banked call to: HalLcdWriteString
//  501   }
//  502   
//  503   if ( keys & HAL_KEY_SW_4 )
??SampleApp_HandleKeys_2:
        MOV       A,R6
        MOV       C,0xE0 /* A   */.3
        JNC       ??SampleApp_HandleKeys_3
//  504   {
//  505  //   HalLcdWriteStringValue( "SensorStat:", receiveData.sensors_okay, 10, HAL_LCD_LINE_1);
//  506  //   HalLcdWriteStringValue( "NodeStat:", receiveData.node_okay, 10, HAL_LCD_LINE_2);
//  507       
//  508       //sprintf(serialOut,"temperature:%d\n",receiveData.temperature);
//  509         int serialSize;
//  510         /*
//  511         sprintf(serialBuffer,
//  512    ",temperature:%d:\n,water_level:%d:\n,flow_rate:%d:\n,PH:%d:\n,batt_level:%d:\n,GNSS_latitude:%d:\n,GNSS_longitude:%d:\n,sensors_okay:%d:\n,error_state:%d:\n,node_okay:1:\n",
//  513                   receiveData.temperature, //1
//  514                   receiveData.water_level, //2
//  515                   receiveData.flow_rate, //3
//  516                   receiveData.PH, //4
//  517                   receiveData.batt_level, //5
//  518                   receiveData.GNSS_latitude, //6
//  519                   receiveData.GNSS_longitude, //7
//  520                   receiveData.sensors_okay, //8
//  521                   receiveData.error_state); //9
//  522         serialSize = sizeof(serialBuffer);
//  523         HalUARTWrite(SAMPLE_APP_PORT, serialBuffer, serialSize); 
//  524         */
//  525       
//  526         /*
//  527         sprintf(serialBuffer,",temperature:%d:\n,water_level:%d:\n",
//  528                 receiveData.temperature,
//  529                 receiveData.water_level);
//  530         serialSize = sizeof(serialBuffer);
//  531         HalUARTWrite(SAMPLE_APP_PORT, serialBuffer, serialSize);
//  532         */
//  533         
//  534         /*
//  535         sprintf(serialBuffer,
//  536         ",t:%d:\n,w:%d:\n,f:%d:\n,PH:%d:\n,b:%d:\n,GNSS_latitude:%d:\n,GNSS_longitude:%d:\n,s:%d:\n,e:%d:\n,n:1:\n",
//  537                   receiveData.temperature, //1
//  538                   receiveData.water_level, //2
//  539                   receiveData.flow_rate, //3
//  540                   receiveData.PH, //4
//  541                   receiveData.batt_level, //5
//  542                   receiveData.GNSS_latitude, //6
//  543                   receiveData.GNSS_longitude, //7
//  544                   receiveData.sensors_okay, //8
//  545                   receiveData.error_state); //9
//  546         serialSize = sizeof(serialBuffer);
//  547         HalUARTWrite(SAMPLE_APP_PORT, serialBuffer, serialSize);
//  548         */
//  549         
//  550         sprintf(serialBuffer,
//  551         ",temp:%d:\n,water:%d:\n,flow:%d:\n,PH:%d:\n,batt:%d:\n,lat:%d:\n,long:%d:\n,sensOkay:%d:\n,err:%d:\n,ok:1:\n",
//  552                   receiveData.temperature, //1
//  553                   receiveData.water_level, //2
//  554                   receiveData.flow_rate, //3
//  555                   receiveData.PH, //4
//  556                   receiveData.batt_level, //5
//  557                   receiveData.GNSS_latitude, //6
//  558                   receiveData.GNSS_longitude, //7
//  559                   receiveData.sensors_okay, //8
//  560                   receiveData.error_state); //9
        ; Setup parameters for call to function sprintf
        MOV       DPTR,#receiveData + 16
        MOVX      A,@DPTR
        MOV       ?V0,A
        MOV       ?V1,#0x0
        MOV       R0,#?V0
        LCALL     ?PUSH_XSTACK_I_TWO
          CFI CFA_XSP16 add(XSP16, 13)
        MOV       DPTR,#receiveData + 14
        MOVX      A,@DPTR
        MOV       ?V0,A
        MOV       R0,#?V0
        LCALL     ?PUSH_XSTACK_I_TWO
          CFI CFA_XSP16 add(XSP16, 15)
        MOV       DPTR,#receiveData + 12
        LCALL     ?PUSH_XSTACK8_X_TWO
          CFI CFA_XSP16 add(XSP16, 17)
        MOV       DPTR,#receiveData + 10
        LCALL     ?PUSH_XSTACK8_X_TWO
          CFI CFA_XSP16 add(XSP16, 19)
        MOV       DPTR,#receiveData + 9
        MOVX      A,@DPTR
        MOV       ?V0,A
        MOV       R0,#?V0
        LCALL     ?PUSH_XSTACK_I_TWO
          CFI CFA_XSP16 add(XSP16, 21)
        MOV       DPTR,#receiveData + 8
        MOVX      A,@DPTR
        MOV       ?V0,A
        MOV       R0,#?V0
        LCALL     ?PUSH_XSTACK_I_TWO
          CFI CFA_XSP16 add(XSP16, 23)
        MOV       DPTR,#receiveData + 4
        LCALL     ?PUSH_XSTACK8_X_FOUR
          CFI CFA_XSP16 add(XSP16, 27)
        MOV       DPTR,#receiveData + 2
        LCALL     ?PUSH_XSTACK8_X_TWO
          CFI CFA_XSP16 add(XSP16, 29)
        MOV       DPTR,#receiveData
        LCALL     ?PUSH_XSTACK8_X_TWO
          CFI CFA_XSP16 add(XSP16, 31)
        MOV       R4,#`?<Constant ",temp:%d:\\n,water:%d:\\n...">` & 0xff
        MOV       R5,#(`?<Constant ",temp:%d:\\n,water:%d:\\n...">` >> 8) & 0xff
        MOV       R2,#serialBuffer & 0xff
        MOV       R3,#(serialBuffer >> 8) & 0xff
        LCALL     `??sprintf::?relay`; Banked call to: sprintf
        MOV       A,#0x14
        LCALL     ?DEALLOC_XSTACK8
          CFI CFA_XSP16 add(XSP16, 11)
//  561         serialSize = sizeof(serialBuffer);
//  562         HalUARTWrite(SAMPLE_APP_PORT, serialBuffer, serialSize);
        ; Setup parameters for call to function HalUARTWrite
        MOV       R4,#0x7d
        MOV       R5,#0x0
        MOV       R2,#serialBuffer & 0xff
        MOV       R3,#(serialBuffer >> 8) & 0xff
        MOV       R1,#0x0
        LCALL     `??HalUARTWrite::?relay`; Banked call to: HalUARTWrite
//  563         
//  564         /*
//  565         sprintf(serialBuffer,",temperature:%d:\n",receiveData.temperature);
//  566         serialSize = sizeof(serialBuffer);
//  567         HalUARTWrite(SAMPLE_APP_PORT, serialBuffer, serialSize);
//  568  
//  569         sprintf(serialBuffer,",water_level:%d:\n",receiveData.water_level);
//  570         serialSize = sizeof(serialBuffer);
//  571         HalUARTWrite(SAMPLE_APP_PORT, serialBuffer, serialSize);
//  572         
//  573         sprintf(serialBuffer,",flow_rate:%d:\n",receiveData.flow_rate);
//  574         serialSize = sizeof(serialBuffer);
//  575         HalUARTWrite(SAMPLE_APP_PORT, serialBuffer, serialSize);
//  576         
//  577         sprintf(serialBuffer,",PH:%d:\n",receiveData.PH);
//  578         serialSize = sizeof(serialBuffer);
//  579         HalUARTWrite(SAMPLE_APP_PORT, serialBuffer, serialSize);
//  580         
//  581         sprintf(serialBuffer,",batt_level:%d:\n",receiveData.batt_level);
//  582         serialSize = sizeof(serialBuffer);
//  583         HalUARTWrite(SAMPLE_APP_PORT, serialBuffer, serialSize);
//  584  
//  585         sprintf(serialBuffer,",GNSS_latitude:%d:\n",receiveData.GNSS_latitude);
//  586         serialSize = sizeof(serialBuffer);
//  587         HalUARTWrite(SAMPLE_APP_PORT, serialBuffer, serialSize);
//  588 */
//  589 
//  590         /*
//  591         sprintf(serialBuffer,",temperature:%d:\n",receiveData.temperature);
//  592         serialSize = sizeof(serialBuffer);
//  593         HalUARTWrite(SAMPLE_APP_PORT, serialBuffer, serialSize);
//  594  
//  595         sprintf(serialBuffer,",water_level:%d:\n",receiveData.water_level);
//  596         serialSize = sizeof(serialBuffer);
//  597         HalUARTWrite(SAMPLE_APP_PORT, serialBuffer, serialSize);
//  598         
//  599         sprintf(serialBuffer,",flow_rate:%d:\n",receiveData.flow_rate);
//  600         serialSize = sizeof(serialBuffer);
//  601         HalUARTWrite(SAMPLE_APP_PORT, serialBuffer, serialSize);
//  602         
//  603         sprintf(serialBuffer,",PH:%d:\n",receiveData.PH);
//  604         serialSize = sizeof(serialBuffer);
//  605         HalUARTWrite(SAMPLE_APP_PORT, serialBuffer, serialSize);
//  606        
//  607         // HalLedBlink(HAL_LED_2,4,50,1000);
//  608         
//  609         sprintf(serialBuffer,",batt_level:%d:\n",receiveData.batt_level);
//  610         serialSize = sizeof(serialBuffer);
//  611         HalUARTWrite(SAMPLE_APP_PORT, serialBuffer, serialSize);
//  612  
//  613         sprintf(serialBuffer,",GNSS_latitude:%d:\n",receiveData.GNSS_latitude);
//  614         serialSize = sizeof(serialBuffer);
//  615         HalUARTWrite(SAMPLE_APP_PORT, serialBuffer, serialSize);
//  616  
//  617         sprintf(serialBuffer,",GNSS_longitude:%d:\n",receiveData.GNSS_longitude);
//  618         serialSize = sizeof(serialBuffer);
//  619         HalUARTWrite(SAMPLE_APP_PORT, serialBuffer, serialSize); 
//  620         
//  621         sprintf(serialBuffer,",sensors_okay:%d:\n",receiveData.sensors_okay);
//  622         serialSize = sizeof(serialBuffer);
//  623         HalUARTWrite(SAMPLE_APP_PORT, serialBuffer, serialSize);
//  624  
//  625         sprintf(serialBuffer,",error_state:%d:\n",receiveData.error_state);
//  626         serialSize = sizeof(serialBuffer);
//  627         HalUARTWrite(SAMPLE_APP_PORT, serialBuffer, serialSize);
//  628         
//  629         strcpy(serialBuffer,",node_okay:1:\n");
//  630         serialSize = sizeof(serialBuffer);
//  631         HalUARTWrite(SAMPLE_APP_PORT, serialBuffer, serialSize);
//  632         
//  633         */
//  634         /*
//  635         sprintf(serialBuffer,",sensors_okay:%d,",receiveData.sensors_okay);
//  636         strcat(serialOut,serialBuffer);
//  637         HalUARTWrite(SAMPLE_APP_PORT, serialOut, serialSize);
//  638         */
//  639         /*
//  640         sprintf(serialBuffer,",error_state:%d,",receiveData.error_state);
//  641         strcat(serialOut,serialBuffer2);
//  642         HalUARTWrite(SAMPLE_APP_PORT, serialOut, serialSize);
//  643         
//  644         strcat(serialOut,",node_okay:1:\n,");
//  645         HalUARTWrite(SAMPLE_APP_PORT, serialOut, serialSize);
//  646         
//  647         serialSize = sizeof(serialOut);
//  648         HalUARTWrite(SAMPLE_APP_PORT, serialOut, serialSize);
//  649 */
//  650         
//  651   }
//  652 }
??SampleApp_HandleKeys_3:
        LJMP      ?Subroutine0 & 0xFFFF
          CFI EndBlock cfiBlock6
//  653 
//  654 /*********************************************************************
//  655  * LOCAL FUNCTIONS
//  656  */
//  657 
//  658 /*********************************************************************
//  659  * @fn      SampleApp_MessageMSGCB
//  660  *
//  661  * @brief   Data message processor callback.  This function processes
//  662  *          any incoming data - probably from other devices.  So, based
//  663  *          on cluster ID, perform the intended action.
//  664  *
//  665  * @param   none
//  666  *
//  667  * @return  none
//  668   */
//  669 /*
//  670 typedef struct
//  671 {
//  672   int16 temperature;
//  673   int16 water_level;
//  674   int32 flow_rate;
//  675   uint8 PH;
//  676   uint8 batt_level;
//  677   int16 GNSS_latitude;
//  678   int16 GNSS_longitude;
//  679   
//  680   bool sensors_okay;
//  681   bool node_okay;
//  682   uint8 error_state;
//  683 } packet_measurements;
//  684 
//  685 packet_measurements receiveData;
//  686 */

        RSEG BANKED_CODE:HUGECODE:NOROOT(0)
//  687 void SampleApp_MessageMSGCB( afIncomingMSGPacket_t *pkt )
SampleApp_MessageMSGCB:
          CFI Block cfiBlock7 Using cfiCommon0
          CFI Function SampleApp_MessageMSGCB
        CODE
//  688 {
        FUNCALL SampleApp_MessageMSGCB, HalLcdWriteStringValue
        LOCFRAME ISTACK, 0, STACK
        LOCFRAME PSTACK, 0, STACK
        LOCFRAME XSTACK, 11, STACK
        LOCFRAME IOVERLAY, 0, STATIC
        LOCFRAME DOVERLAY, 0, STATIC
        ARGFRAME ISTACK, 0, STACK
        ARGFRAME PSTACK, 0, STACK
        ARGFRAME XSTACK, 11, STACK
        ARGFRAME IOVERLAY, 0, STATIC
        ARGFRAME DOVERLAY, 0, STATIC
        FUNCALL SampleApp_MessageMSGCB, memcpy
        LOCFRAME ISTACK, 0, STACK
        LOCFRAME PSTACK, 0, STACK
        LOCFRAME XSTACK, 12, STACK
        LOCFRAME IOVERLAY, 0, STATIC
        LOCFRAME DOVERLAY, 0, STATIC
        ARGFRAME ISTACK, 0, STACK
        ARGFRAME PSTACK, 0, STACK
        ARGFRAME XSTACK, 12, STACK
        ARGFRAME IOVERLAY, 0, STATIC
        ARGFRAME DOVERLAY, 0, STATIC
        FUNCALL SampleApp_MessageMSGCB, HalLcdWriteStringValue
        LOCFRAME ISTACK, 0, STACK
        LOCFRAME PSTACK, 0, STACK
        LOCFRAME XSTACK, 11, STACK
        LOCFRAME IOVERLAY, 0, STATIC
        LOCFRAME DOVERLAY, 0, STATIC
        ARGFRAME ISTACK, 0, STACK
        ARGFRAME PSTACK, 0, STACK
        ARGFRAME XSTACK, 11, STACK
        ARGFRAME IOVERLAY, 0, STATIC
        ARGFRAME DOVERLAY, 0, STATIC
        FUNCALL SampleApp_MessageMSGCB, HalLedBlink
        LOCFRAME ISTACK, 0, STACK
        LOCFRAME PSTACK, 0, STACK
        LOCFRAME XSTACK, 10, STACK
        LOCFRAME IOVERLAY, 0, STATIC
        LOCFRAME DOVERLAY, 0, STATIC
        ARGFRAME ISTACK, 0, STACK
        ARGFRAME PSTACK, 0, STACK
        ARGFRAME XSTACK, 10, STACK
        ARGFRAME IOVERLAY, 0, STATIC
        ARGFRAME DOVERLAY, 0, STATIC
        REQUIRE ?V0
        REQUIRE ?V1
        MOV       A,#-0xa
        LCALL     ?BANKED_ENTER_XDATA
          CFI DPH0 load(1, XDATA, add(CFA_XSP16, literal(-1)))
          CFI DPL0 load(1, XDATA, add(CFA_XSP16, literal(-2)))
          CFI ?BRET_EXT load(1, XDATA, add(CFA_XSP16, literal(-3)))
          CFI ?RET_HIGH load(1, XDATA, add(CFA_XSP16, literal(-4)))
          CFI ?RET_LOW load(1, XDATA, add(CFA_XSP16, literal(-5)))
          CFI R7 load(1, XDATA, add(CFA_XSP16, literal(-6)))
          CFI V1 load(1, XDATA, add(CFA_XSP16, literal(-7)))
          CFI V0 load(1, XDATA, add(CFA_XSP16, literal(-8)))
          CFI VB load(1, XDATA, add(CFA_XSP16, literal(-9)))
          CFI R6 load(1, XDATA, add(CFA_XSP16, literal(-10)))
          CFI CFA_SP SP+0
          CFI CFA_XSP16 add(XSP16, 10)
        ; Saved register size: 10
        ; Auto size: 0
        MOV       A,R2
        MOV       R6,A
        MOV       A,R3
        MOV       R7,A
//  689   int dataSize; //Data size of received packet
//  690   
//  691   switch ( pkt->clusterId )
        MOV       DPL,R2
        MOV       DPH,A
        INC       DPTR
        INC       DPTR
        INC       DPTR
        INC       DPTR
        MOVX      A,@DPTR
        XRL       A,#0x3
        JNZ       ??SampleApp_MessageMSGCB_0
        INC       DPTR
        MOVX      A,@DPTR
??SampleApp_MessageMSGCB_0:
        JNZ       ??SampleApp_MessageMSGCB_1
//  692   {
//  693     case SAMPLEAPP_PERIODIC_CLUSTERID:
//  694       break;
//  695       
//  696     case SAMPLEAPP_CLUSTERID1:
//  697       dataSize = sizeof(packet_measurements);
//  698       HalLcdWriteStringValue("Data Size:", dataSize, 10,HAL_LCD_LINE_1);
        ; Setup parameters for call to function HalLcdWriteStringValue
        MOV       ?V0,#0x1
        MOV       R0,#?V0
        LCALL     ?PUSH_XSTACK_I_ONE
          CFI CFA_XSP16 add(XSP16, 11)
        MOV       R1,#0xa
        MOV       R4,#0x1b
        MOV       R5,#0x0
        MOV       R2,#`?<Constant "Data Size:">` & 0xff
        MOV       R3,#(`?<Constant "Data Size:">` >> 8) & 0xff
        LCALL     ??Subroutine6_0 & 0xFFFF
??CrossCallReturnLabel_17:
        LCALL     ?DEALLOC_XSTACK8
          CFI CFA_XSP16 add(XSP16, 10)
//  699       memcpy(&receiveData,pkt->cmd.Data,dataSize);
        ; Setup parameters for call to function memcpy
        MOV       ?V0,#0x1b
        MOV       ?V1,#0x0
        MOV       R0,#?V0
        LCALL     ?PUSH_XSTACK_I_TWO
          CFI CFA_XSP16 add(XSP16, 12)
        MOV       A,R6
        ADD       A,#0x21
        MOV       DPL,A
        CLR       A
        ADDC      A,R7
        MOV       DPH,A
        LCALL     ??Subroutine5_0 & 0xFFFF
??CrossCallReturnLabel_4:
        MOV       R2,#receiveData & 0xff
        MOV       R3,#(receiveData >> 8) & 0xff
        LCALL     `??memcpy::?relay`; Banked call to: memcpy
        MOV       A,#0x2
        LCALL     ?DEALLOC_XSTACK8
          CFI CFA_XSP16 add(XSP16, 10)
//  700       //HalLcdWriteStringValue("Data:", receiveData.testData2, 10, HAL_LCD_LINE_2);
//  701       //HalLcdWriteStringValue("Byte: ", pkt->cmd.Data[4], 10,HAL_LCD_LINE_3);
//  702       
//  703       //char ptr[5] = {pkt->cmd.Data[4], pkt->cmd.Data[5], pkt->cmd.Data[6], pkt->cmd.Data[7], pkt->cmd.Data[8]};
//  704       
//  705       /*
//  706       HalLcdWriteString((char*)pkt->cmd.Data[4],HAL_LCD_LINE_1);
//  707  
//  708       HalLcdWriteString((char*)pkt->cmd.Data[5],HAL_LCD_LINE_2);
//  709       
//  710       HalLcdWriteString((char*)pkt->cmd.Data[7],HAL_LCD_LINE_3);
//  711       */ 
//  712       
//  713       HalLcdWriteStringValue("Byte: ", pkt->cmd.DataLength, 10,HAL_LCD_LINE_3);
        ; Setup parameters for call to function HalLcdWriteStringValue
        MOV       ?V0,#0x3
        MOV       R0,#?V0
        LCALL     ?PUSH_XSTACK_I_ONE
          CFI CFA_XSP16 add(XSP16, 11)
        MOV       R1,#0xa
        MOV       A,R6
        ADD       A,#0x1f
        MOV       DPL,A
        CLR       A
        ADDC      A,R7
        MOV       DPH,A
        LCALL     ??Subroutine5_0 & 0xFFFF
??CrossCallReturnLabel_5:
        MOV       R2,#`?<Constant "Byte: ">` & 0xff
        MOV       R3,#(`?<Constant "Byte: ">` >> 8) & 0xff
        LCALL     ??Subroutine6_0 & 0xFFFF
??CrossCallReturnLabel_18:
        LCALL     ?DEALLOC_XSTACK8
          CFI CFA_XSP16 add(XSP16, 10)
//  714       HalLedBlink(HAL_LED_1,4,50,1000);
        ; Setup parameters for call to function HalLedBlink
        MOV       R4,#-0x18
        MOV       R5,#0x3
        MOV       R3,#0x32
        MOV       R2,#0x4
        MOV       R1,#0x1
        LCALL     `??HalLedBlink::?relay`; Banked call to: HalLedBlink
//  715       
//  716       break;
//  717 
//  718     case SAMPLEAPP_FLASH_CLUSTERID:
//  719       break;
//  720   }
//  721 }
??SampleApp_MessageMSGCB_1:
        LJMP      ??Subroutine7_0 & 0xFFFF
          CFI EndBlock cfiBlock7

        RSEG BANKED_CODE:HUGECODE:NOROOT(0)
?Subroutine3:
          CFI Block cfiCond8 Using cfiCommon0
          CFI Function SampleApp_HandleKeys
          CFI Conditional ??CrossCallReturnLabel_6
          CFI R6 load(1, XDATA, add(CFA_XSP16, literal(-11)))
          CFI VB load(1, XDATA, add(CFA_XSP16, literal(-10)))
          CFI V0 load(1, XDATA, add(CFA_XSP16, literal(-9)))
          CFI V1 load(1, XDATA, add(CFA_XSP16, literal(-8)))
          CFI V2 load(1, XDATA, add(CFA_XSP16, literal(-7)))
          CFI R7 load(1, XDATA, add(CFA_XSP16, literal(-6)))
          CFI ?RET_LOW load(1, XDATA, add(CFA_XSP16, literal(-5)))
          CFI ?RET_HIGH load(1, XDATA, add(CFA_XSP16, literal(-4)))
          CFI ?BRET_EXT load(1, XDATA, add(CFA_XSP16, literal(-3)))
          CFI DPL0 load(1, XDATA, add(CFA_XSP16, literal(-2)))
          CFI DPH0 load(1, XDATA, add(CFA_XSP16, literal(-1)))
          CFI CFA_SP SP+-2
          CFI CFA_XSP16 add(XSP16, 12)
          CFI Block cfiCond9 Using cfiCommon0
          CFI (cfiCond9) Function SampleApp_HandleKeys
          CFI (cfiCond9) Conditional ??CrossCallReturnLabel_7
          CFI (cfiCond9) R6 load(1, XDATA, add(CFA_XSP16, literal(-11)))
          CFI (cfiCond9) VB load(1, XDATA, add(CFA_XSP16, literal(-10)))
          CFI (cfiCond9) V0 load(1, XDATA, add(CFA_XSP16, literal(-9)))
          CFI (cfiCond9) V1 load(1, XDATA, add(CFA_XSP16, literal(-8)))
          CFI (cfiCond9) V2 load(1, XDATA, add(CFA_XSP16, literal(-7)))
          CFI (cfiCond9) R7 load(1, XDATA, add(CFA_XSP16, literal(-6)))
          CFI (cfiCond9) ?RET_LOW load(1, XDATA, add(CFA_XSP16, literal(-5)))
          CFI (cfiCond9) ?RET_HIGH load(1, XDATA, add(CFA_XSP16, literal(-4)))
          CFI (cfiCond9) ?BRET_EXT load(1, XDATA, add(CFA_XSP16, literal(-3)))
          CFI (cfiCond9) DPL0 load(1, XDATA, add(CFA_XSP16, literal(-2)))
          CFI (cfiCond9) DPH0 load(1, XDATA, add(CFA_XSP16, literal(-1)))
          CFI (cfiCond9) CFA_SP SP+-2
          CFI (cfiCond9) CFA_XSP16 add(XSP16, 12)
          CFI Block cfiCond10 Using cfiCommon0
          CFI (cfiCond10) Function SampleApp_HandleKeys
          CFI (cfiCond10) Conditional ??CrossCallReturnLabel_8
          CFI (cfiCond10) R6 load(1, XDATA, add(CFA_XSP16, literal(-11)))
          CFI (cfiCond10) VB load(1, XDATA, add(CFA_XSP16, literal(-10)))
          CFI (cfiCond10) V0 load(1, XDATA, add(CFA_XSP16, literal(-9)))
          CFI (cfiCond10) V1 load(1, XDATA, add(CFA_XSP16, literal(-8)))
          CFI (cfiCond10) V2 load(1, XDATA, add(CFA_XSP16, literal(-7)))
          CFI (cfiCond10) R7 load(1, XDATA, add(CFA_XSP16, literal(-6)))
          CFI (cfiCond10) ?RET_LOW load(1, XDATA, add(CFA_XSP16, literal(-5)))
          CFI (cfiCond10) ?RET_HIGH load(1, XDATA, add(CFA_XSP16, literal(-4)))
          CFI (cfiCond10) ?BRET_EXT load(1, XDATA, add(CFA_XSP16, literal(-3)))
          CFI (cfiCond10) DPL0 load(1, XDATA, add(CFA_XSP16, literal(-2)))
          CFI (cfiCond10) DPH0 load(1, XDATA, add(CFA_XSP16, literal(-1)))
          CFI (cfiCond10) CFA_SP SP+-2
          CFI (cfiCond10) CFA_XSP16 add(XSP16, 12)
          CFI Block cfiPicker11 Using cfiCommon1
          CFI (cfiPicker11) NoFunction
          CFI (cfiPicker11) Picker
        MOV       R1,#0xa
        MOV       DPTR,#receiveData
          CFI EndBlock cfiCond8
          CFI EndBlock cfiCond9
          CFI EndBlock cfiCond10
          CFI EndBlock cfiPicker11
        REQUIRE ??Subroutine5_0
        ; // Fall through to label ??Subroutine5_0

        RSEG BANKED_CODE:HUGECODE:NOROOT(0)
??Subroutine5_0:
          CFI Block cfiCond12 Using cfiCommon0
          CFI Function SampleApp_HandleKeys
          CFI Conditional ??CrossCallReturnLabel_2
          CFI R6 load(1, XDATA, add(CFA_XSP16, literal(-11)))
          CFI VB load(1, XDATA, add(CFA_XSP16, literal(-10)))
          CFI V0 load(1, XDATA, add(CFA_XSP16, literal(-9)))
          CFI V1 load(1, XDATA, add(CFA_XSP16, literal(-8)))
          CFI V2 load(1, XDATA, add(CFA_XSP16, literal(-7)))
          CFI R7 load(1, XDATA, add(CFA_XSP16, literal(-6)))
          CFI ?RET_LOW load(1, XDATA, add(CFA_XSP16, literal(-5)))
          CFI ?RET_HIGH load(1, XDATA, add(CFA_XSP16, literal(-4)))
          CFI ?BRET_EXT load(1, XDATA, add(CFA_XSP16, literal(-3)))
          CFI DPL0 load(1, XDATA, add(CFA_XSP16, literal(-2)))
          CFI DPH0 load(1, XDATA, add(CFA_XSP16, literal(-1)))
          CFI CFA_SP SP+-2
          CFI CFA_XSP16 add(XSP16, 12)
          CFI Block cfiCond13 Using cfiCommon0
          CFI (cfiCond13) Function SampleApp_HandleKeys
          CFI (cfiCond13) Conditional ??CrossCallReturnLabel_3
          CFI (cfiCond13) R6 load(1, XDATA, add(CFA_XSP16, literal(-11)))
          CFI (cfiCond13) VB load(1, XDATA, add(CFA_XSP16, literal(-10)))
          CFI (cfiCond13) V0 load(1, XDATA, add(CFA_XSP16, literal(-9)))
          CFI (cfiCond13) V1 load(1, XDATA, add(CFA_XSP16, literal(-8)))
          CFI (cfiCond13) V2 load(1, XDATA, add(CFA_XSP16, literal(-7)))
          CFI (cfiCond13) R7 load(1, XDATA, add(CFA_XSP16, literal(-6)))
          CFI (cfiCond13) ?RET_LOW load(1, XDATA, add(CFA_XSP16, literal(-5)))
          CFI (cfiCond13) ?RET_HIGH load(1, XDATA, add(CFA_XSP16, literal(-4)))
          CFI (cfiCond13) ?BRET_EXT load(1, XDATA, add(CFA_XSP16, literal(-3)))
          CFI (cfiCond13) DPL0 load(1, XDATA, add(CFA_XSP16, literal(-2)))
          CFI (cfiCond13) DPH0 load(1, XDATA, add(CFA_XSP16, literal(-1)))
          CFI (cfiCond13) CFA_SP SP+-2
          CFI (cfiCond13) CFA_XSP16 add(XSP16, 12)
          CFI Block cfiCond14 Using cfiCommon0
          CFI (cfiCond14) Function SampleApp_MessageMSGCB
          CFI (cfiCond14) Conditional ??CrossCallReturnLabel_4
          CFI (cfiCond14) R6 load(1, XDATA, add(CFA_XSP16, literal(-10)))
          CFI (cfiCond14) VB load(1, XDATA, add(CFA_XSP16, literal(-9)))
          CFI (cfiCond14) V0 load(1, XDATA, add(CFA_XSP16, literal(-8)))
          CFI (cfiCond14) V1 load(1, XDATA, add(CFA_XSP16, literal(-7)))
          CFI (cfiCond14) R7 load(1, XDATA, add(CFA_XSP16, literal(-6)))
          CFI (cfiCond14) ?RET_LOW load(1, XDATA, add(CFA_XSP16, literal(-5)))
          CFI (cfiCond14) ?RET_HIGH load(1, XDATA, add(CFA_XSP16, literal(-4)))
          CFI (cfiCond14) ?BRET_EXT load(1, XDATA, add(CFA_XSP16, literal(-3)))
          CFI (cfiCond14) DPL0 load(1, XDATA, add(CFA_XSP16, literal(-2)))
          CFI (cfiCond14) DPH0 load(1, XDATA, add(CFA_XSP16, literal(-1)))
          CFI (cfiCond14) CFA_SP SP+-2
          CFI (cfiCond14) CFA_XSP16 add(XSP16, 12)
          CFI Block cfiCond15 Using cfiCommon0
          CFI (cfiCond15) Function SampleApp_MessageMSGCB
          CFI (cfiCond15) Conditional ??CrossCallReturnLabel_5
          CFI (cfiCond15) R6 load(1, XDATA, add(CFA_XSP16, literal(-10)))
          CFI (cfiCond15) VB load(1, XDATA, add(CFA_XSP16, literal(-9)))
          CFI (cfiCond15) V0 load(1, XDATA, add(CFA_XSP16, literal(-8)))
          CFI (cfiCond15) V1 load(1, XDATA, add(CFA_XSP16, literal(-7)))
          CFI (cfiCond15) R7 load(1, XDATA, add(CFA_XSP16, literal(-6)))
          CFI (cfiCond15) ?RET_LOW load(1, XDATA, add(CFA_XSP16, literal(-5)))
          CFI (cfiCond15) ?RET_HIGH load(1, XDATA, add(CFA_XSP16, literal(-4)))
          CFI (cfiCond15) ?BRET_EXT load(1, XDATA, add(CFA_XSP16, literal(-3)))
          CFI (cfiCond15) DPL0 load(1, XDATA, add(CFA_XSP16, literal(-2)))
          CFI (cfiCond15) DPH0 load(1, XDATA, add(CFA_XSP16, literal(-1)))
          CFI (cfiCond15) CFA_SP SP+-2
          CFI (cfiCond15) CFA_XSP16 add(XSP16, 11)
          CFI Block cfiCond16 Using cfiCommon0
          CFI (cfiCond16) Function SampleApp_HandleKeys
          CFI (cfiCond16) Conditional ??CrossCallReturnLabel_6
          CFI (cfiCond16) R6 load(1, XDATA, add(CFA_XSP16, literal(-11)))
          CFI (cfiCond16) VB load(1, XDATA, add(CFA_XSP16, literal(-10)))
          CFI (cfiCond16) V0 load(1, XDATA, add(CFA_XSP16, literal(-9)))
          CFI (cfiCond16) V1 load(1, XDATA, add(CFA_XSP16, literal(-8)))
          CFI (cfiCond16) V2 load(1, XDATA, add(CFA_XSP16, literal(-7)))
          CFI (cfiCond16) R7 load(1, XDATA, add(CFA_XSP16, literal(-6)))
          CFI (cfiCond16) ?RET_LOW load(1, XDATA, add(CFA_XSP16, literal(-5)))
          CFI (cfiCond16) ?RET_HIGH load(1, XDATA, add(CFA_XSP16, literal(-4)))
          CFI (cfiCond16) ?BRET_EXT load(1, XDATA, add(CFA_XSP16, literal(-3)))
          CFI (cfiCond16) DPL0 load(1, XDATA, add(CFA_XSP16, literal(-2)))
          CFI (cfiCond16) DPH0 load(1, XDATA, add(CFA_XSP16, literal(-1)))
          CFI (cfiCond16) CFA_SP SP+-2
          CFI (cfiCond16) CFA_XSP16 add(XSP16, 12)
          CFI Block cfiCond17 Using cfiCommon0
          CFI (cfiCond17) Function SampleApp_HandleKeys
          CFI (cfiCond17) Conditional ??CrossCallReturnLabel_7
          CFI (cfiCond17) R6 load(1, XDATA, add(CFA_XSP16, literal(-11)))
          CFI (cfiCond17) VB load(1, XDATA, add(CFA_XSP16, literal(-10)))
          CFI (cfiCond17) V0 load(1, XDATA, add(CFA_XSP16, literal(-9)))
          CFI (cfiCond17) V1 load(1, XDATA, add(CFA_XSP16, literal(-8)))
          CFI (cfiCond17) V2 load(1, XDATA, add(CFA_XSP16, literal(-7)))
          CFI (cfiCond17) R7 load(1, XDATA, add(CFA_XSP16, literal(-6)))
          CFI (cfiCond17) ?RET_LOW load(1, XDATA, add(CFA_XSP16, literal(-5)))
          CFI (cfiCond17) ?RET_HIGH load(1, XDATA, add(CFA_XSP16, literal(-4)))
          CFI (cfiCond17) ?BRET_EXT load(1, XDATA, add(CFA_XSP16, literal(-3)))
          CFI (cfiCond17) DPL0 load(1, XDATA, add(CFA_XSP16, literal(-2)))
          CFI (cfiCond17) DPH0 load(1, XDATA, add(CFA_XSP16, literal(-1)))
          CFI (cfiCond17) CFA_SP SP+-2
          CFI (cfiCond17) CFA_XSP16 add(XSP16, 12)
          CFI Block cfiCond18 Using cfiCommon0
          CFI (cfiCond18) Function SampleApp_HandleKeys
          CFI (cfiCond18) Conditional ??CrossCallReturnLabel_8
          CFI (cfiCond18) R6 load(1, XDATA, add(CFA_XSP16, literal(-11)))
          CFI (cfiCond18) VB load(1, XDATA, add(CFA_XSP16, literal(-10)))
          CFI (cfiCond18) V0 load(1, XDATA, add(CFA_XSP16, literal(-9)))
          CFI (cfiCond18) V1 load(1, XDATA, add(CFA_XSP16, literal(-8)))
          CFI (cfiCond18) V2 load(1, XDATA, add(CFA_XSP16, literal(-7)))
          CFI (cfiCond18) R7 load(1, XDATA, add(CFA_XSP16, literal(-6)))
          CFI (cfiCond18) ?RET_LOW load(1, XDATA, add(CFA_XSP16, literal(-5)))
          CFI (cfiCond18) ?RET_HIGH load(1, XDATA, add(CFA_XSP16, literal(-4)))
          CFI (cfiCond18) ?BRET_EXT load(1, XDATA, add(CFA_XSP16, literal(-3)))
          CFI (cfiCond18) DPL0 load(1, XDATA, add(CFA_XSP16, literal(-2)))
          CFI (cfiCond18) DPH0 load(1, XDATA, add(CFA_XSP16, literal(-1)))
          CFI (cfiCond18) CFA_SP SP+-2
          CFI (cfiCond18) CFA_XSP16 add(XSP16, 12)
          CFI Block cfiPicker19 Using cfiCommon1
          CFI (cfiPicker19) NoFunction
          CFI (cfiPicker19) Picker
        MOVX      A,@DPTR
        MOV       R4,A
        INC       DPTR
        MOVX      A,@DPTR
        MOV       R5,A
        RET
          CFI EndBlock cfiCond12
          CFI EndBlock cfiCond13
          CFI EndBlock cfiCond14
          CFI EndBlock cfiCond15
          CFI EndBlock cfiCond16
          CFI EndBlock cfiCond17
          CFI EndBlock cfiCond18
          CFI EndBlock cfiPicker19

        RSEG BANKED_CODE:HUGECODE:NOROOT(0)
?Subroutine2:
          CFI Block cfiCond20 Using cfiCommon0
          CFI Function SampleApp_HandleKeys
          CFI Conditional ??CrossCallReturnLabel_9
          CFI R6 load(1, XDATA, add(CFA_XSP16, literal(-11)))
          CFI VB load(1, XDATA, add(CFA_XSP16, literal(-10)))
          CFI V0 load(1, XDATA, add(CFA_XSP16, literal(-9)))
          CFI V1 load(1, XDATA, add(CFA_XSP16, literal(-8)))
          CFI V2 load(1, XDATA, add(CFA_XSP16, literal(-7)))
          CFI R7 load(1, XDATA, add(CFA_XSP16, literal(-6)))
          CFI ?RET_LOW load(1, XDATA, add(CFA_XSP16, literal(-5)))
          CFI ?RET_HIGH load(1, XDATA, add(CFA_XSP16, literal(-4)))
          CFI ?BRET_EXT load(1, XDATA, add(CFA_XSP16, literal(-3)))
          CFI DPL0 load(1, XDATA, add(CFA_XSP16, literal(-2)))
          CFI DPH0 load(1, XDATA, add(CFA_XSP16, literal(-1)))
          CFI CFA_SP SP+-2
          CFI CFA_XSP16 add(XSP16, 12)
          CFI Block cfiCond21 Using cfiCommon0
          CFI (cfiCond21) Function SampleApp_HandleKeys
          CFI (cfiCond21) Conditional ??CrossCallReturnLabel_10
          CFI (cfiCond21) R6 load(1, XDATA, add(CFA_XSP16, literal(-11)))
          CFI (cfiCond21) VB load(1, XDATA, add(CFA_XSP16, literal(-10)))
          CFI (cfiCond21) V0 load(1, XDATA, add(CFA_XSP16, literal(-9)))
          CFI (cfiCond21) V1 load(1, XDATA, add(CFA_XSP16, literal(-8)))
          CFI (cfiCond21) V2 load(1, XDATA, add(CFA_XSP16, literal(-7)))
          CFI (cfiCond21) R7 load(1, XDATA, add(CFA_XSP16, literal(-6)))
          CFI (cfiCond21) ?RET_LOW load(1, XDATA, add(CFA_XSP16, literal(-5)))
          CFI (cfiCond21) ?RET_HIGH load(1, XDATA, add(CFA_XSP16, literal(-4)))
          CFI (cfiCond21) ?BRET_EXT load(1, XDATA, add(CFA_XSP16, literal(-3)))
          CFI (cfiCond21) DPL0 load(1, XDATA, add(CFA_XSP16, literal(-2)))
          CFI (cfiCond21) DPH0 load(1, XDATA, add(CFA_XSP16, literal(-1)))
          CFI (cfiCond21) CFA_SP SP+-2
          CFI (cfiCond21) CFA_XSP16 add(XSP16, 12)
          CFI Block cfiPicker22 Using cfiCommon1
          CFI (cfiPicker22) NoFunction
          CFI (cfiPicker22) Picker
        MOV       R1,#0xa
        MOV       DPTR,#receiveData + 9
        MOVX      A,@DPTR
        MOV       R4,A
        MOV       R5,#0x0
        MOV       R2,?V0
        MOV       R3,?V1
          CFI EndBlock cfiCond20
          CFI EndBlock cfiCond21
          CFI EndBlock cfiPicker22
        REQUIRE ??Subroutine6_0
        ; // Fall through to label ??Subroutine6_0

        RSEG BANKED_CODE:HUGECODE:NOROOT(0)
??Subroutine6_0:
          CFI Block cfiCond23 Using cfiCommon0
          CFI Function SampleApp_HandleKeys
          CFI Conditional ??CrossCallReturnLabel_11
          CFI R6 load(1, XDATA, add(CFA_XSP16, literal(-11)))
          CFI VB load(1, XDATA, add(CFA_XSP16, literal(-10)))
          CFI V0 load(1, XDATA, add(CFA_XSP16, literal(-9)))
          CFI V1 load(1, XDATA, add(CFA_XSP16, literal(-8)))
          CFI V2 load(1, XDATA, add(CFA_XSP16, literal(-7)))
          CFI R7 load(1, XDATA, add(CFA_XSP16, literal(-6)))
          CFI ?RET_LOW load(1, XDATA, add(CFA_XSP16, literal(-5)))
          CFI ?RET_HIGH load(1, XDATA, add(CFA_XSP16, literal(-4)))
          CFI ?BRET_EXT load(1, XDATA, add(CFA_XSP16, literal(-3)))
          CFI DPL0 load(1, XDATA, add(CFA_XSP16, literal(-2)))
          CFI DPH0 load(1, XDATA, add(CFA_XSP16, literal(-1)))
          CFI CFA_SP SP+-2
          CFI CFA_XSP16 add(XSP16, 12)
          CFI Block cfiCond24 Using cfiCommon0
          CFI (cfiCond24) Function SampleApp_HandleKeys
          CFI (cfiCond24) Conditional ??CrossCallReturnLabel_12
          CFI (cfiCond24) R6 load(1, XDATA, add(CFA_XSP16, literal(-11)))
          CFI (cfiCond24) VB load(1, XDATA, add(CFA_XSP16, literal(-10)))
          CFI (cfiCond24) V0 load(1, XDATA, add(CFA_XSP16, literal(-9)))
          CFI (cfiCond24) V1 load(1, XDATA, add(CFA_XSP16, literal(-8)))
          CFI (cfiCond24) V2 load(1, XDATA, add(CFA_XSP16, literal(-7)))
          CFI (cfiCond24) R7 load(1, XDATA, add(CFA_XSP16, literal(-6)))
          CFI (cfiCond24) ?RET_LOW load(1, XDATA, add(CFA_XSP16, literal(-5)))
          CFI (cfiCond24) ?RET_HIGH load(1, XDATA, add(CFA_XSP16, literal(-4)))
          CFI (cfiCond24) ?BRET_EXT load(1, XDATA, add(CFA_XSP16, literal(-3)))
          CFI (cfiCond24) DPL0 load(1, XDATA, add(CFA_XSP16, literal(-2)))
          CFI (cfiCond24) DPH0 load(1, XDATA, add(CFA_XSP16, literal(-1)))
          CFI (cfiCond24) CFA_SP SP+-2
          CFI (cfiCond24) CFA_XSP16 add(XSP16, 12)
          CFI Block cfiCond25 Using cfiCommon0
          CFI (cfiCond25) Function SampleApp_HandleKeys
          CFI (cfiCond25) Conditional ??CrossCallReturnLabel_13
          CFI (cfiCond25) R6 load(1, XDATA, add(CFA_XSP16, literal(-11)))
          CFI (cfiCond25) VB load(1, XDATA, add(CFA_XSP16, literal(-10)))
          CFI (cfiCond25) V0 load(1, XDATA, add(CFA_XSP16, literal(-9)))
          CFI (cfiCond25) V1 load(1, XDATA, add(CFA_XSP16, literal(-8)))
          CFI (cfiCond25) V2 load(1, XDATA, add(CFA_XSP16, literal(-7)))
          CFI (cfiCond25) R7 load(1, XDATA, add(CFA_XSP16, literal(-6)))
          CFI (cfiCond25) ?RET_LOW load(1, XDATA, add(CFA_XSP16, literal(-5)))
          CFI (cfiCond25) ?RET_HIGH load(1, XDATA, add(CFA_XSP16, literal(-4)))
          CFI (cfiCond25) ?BRET_EXT load(1, XDATA, add(CFA_XSP16, literal(-3)))
          CFI (cfiCond25) DPL0 load(1, XDATA, add(CFA_XSP16, literal(-2)))
          CFI (cfiCond25) DPH0 load(1, XDATA, add(CFA_XSP16, literal(-1)))
          CFI (cfiCond25) CFA_SP SP+-2
          CFI (cfiCond25) CFA_XSP16 add(XSP16, 12)
          CFI Block cfiCond26 Using cfiCommon0
          CFI (cfiCond26) Function SampleApp_HandleKeys
          CFI (cfiCond26) Conditional ??CrossCallReturnLabel_14
          CFI (cfiCond26) R6 load(1, XDATA, add(CFA_XSP16, literal(-11)))
          CFI (cfiCond26) VB load(1, XDATA, add(CFA_XSP16, literal(-10)))
          CFI (cfiCond26) V0 load(1, XDATA, add(CFA_XSP16, literal(-9)))
          CFI (cfiCond26) V1 load(1, XDATA, add(CFA_XSP16, literal(-8)))
          CFI (cfiCond26) V2 load(1, XDATA, add(CFA_XSP16, literal(-7)))
          CFI (cfiCond26) R7 load(1, XDATA, add(CFA_XSP16, literal(-6)))
          CFI (cfiCond26) ?RET_LOW load(1, XDATA, add(CFA_XSP16, literal(-5)))
          CFI (cfiCond26) ?RET_HIGH load(1, XDATA, add(CFA_XSP16, literal(-4)))
          CFI (cfiCond26) ?BRET_EXT load(1, XDATA, add(CFA_XSP16, literal(-3)))
          CFI (cfiCond26) DPL0 load(1, XDATA, add(CFA_XSP16, literal(-2)))
          CFI (cfiCond26) DPH0 load(1, XDATA, add(CFA_XSP16, literal(-1)))
          CFI (cfiCond26) CFA_SP SP+-2
          CFI (cfiCond26) CFA_XSP16 add(XSP16, 12)
          CFI Block cfiCond27 Using cfiCommon0
          CFI (cfiCond27) Function SampleApp_HandleKeys
          CFI (cfiCond27) Conditional ??CrossCallReturnLabel_15
          CFI (cfiCond27) R6 load(1, XDATA, add(CFA_XSP16, literal(-11)))
          CFI (cfiCond27) VB load(1, XDATA, add(CFA_XSP16, literal(-10)))
          CFI (cfiCond27) V0 load(1, XDATA, add(CFA_XSP16, literal(-9)))
          CFI (cfiCond27) V1 load(1, XDATA, add(CFA_XSP16, literal(-8)))
          CFI (cfiCond27) V2 load(1, XDATA, add(CFA_XSP16, literal(-7)))
          CFI (cfiCond27) R7 load(1, XDATA, add(CFA_XSP16, literal(-6)))
          CFI (cfiCond27) ?RET_LOW load(1, XDATA, add(CFA_XSP16, literal(-5)))
          CFI (cfiCond27) ?RET_HIGH load(1, XDATA, add(CFA_XSP16, literal(-4)))
          CFI (cfiCond27) ?BRET_EXT load(1, XDATA, add(CFA_XSP16, literal(-3)))
          CFI (cfiCond27) DPL0 load(1, XDATA, add(CFA_XSP16, literal(-2)))
          CFI (cfiCond27) DPH0 load(1, XDATA, add(CFA_XSP16, literal(-1)))
          CFI (cfiCond27) CFA_SP SP+-2
          CFI (cfiCond27) CFA_XSP16 add(XSP16, 12)
          CFI Block cfiCond28 Using cfiCommon0
          CFI (cfiCond28) Function SampleApp_HandleKeys
          CFI (cfiCond28) Conditional ??CrossCallReturnLabel_16
          CFI (cfiCond28) R6 load(1, XDATA, add(CFA_XSP16, literal(-11)))
          CFI (cfiCond28) VB load(1, XDATA, add(CFA_XSP16, literal(-10)))
          CFI (cfiCond28) V0 load(1, XDATA, add(CFA_XSP16, literal(-9)))
          CFI (cfiCond28) V1 load(1, XDATA, add(CFA_XSP16, literal(-8)))
          CFI (cfiCond28) V2 load(1, XDATA, add(CFA_XSP16, literal(-7)))
          CFI (cfiCond28) R7 load(1, XDATA, add(CFA_XSP16, literal(-6)))
          CFI (cfiCond28) ?RET_LOW load(1, XDATA, add(CFA_XSP16, literal(-5)))
          CFI (cfiCond28) ?RET_HIGH load(1, XDATA, add(CFA_XSP16, literal(-4)))
          CFI (cfiCond28) ?BRET_EXT load(1, XDATA, add(CFA_XSP16, literal(-3)))
          CFI (cfiCond28) DPL0 load(1, XDATA, add(CFA_XSP16, literal(-2)))
          CFI (cfiCond28) DPH0 load(1, XDATA, add(CFA_XSP16, literal(-1)))
          CFI (cfiCond28) CFA_SP SP+-2
          CFI (cfiCond28) CFA_XSP16 add(XSP16, 12)
          CFI Block cfiCond29 Using cfiCommon0
          CFI (cfiCond29) Function SampleApp_MessageMSGCB
          CFI (cfiCond29) Conditional ??CrossCallReturnLabel_17
          CFI (cfiCond29) R6 load(1, XDATA, add(CFA_XSP16, literal(-10)))
          CFI (cfiCond29) VB load(1, XDATA, add(CFA_XSP16, literal(-9)))
          CFI (cfiCond29) V0 load(1, XDATA, add(CFA_XSP16, literal(-8)))
          CFI (cfiCond29) V1 load(1, XDATA, add(CFA_XSP16, literal(-7)))
          CFI (cfiCond29) R7 load(1, XDATA, add(CFA_XSP16, literal(-6)))
          CFI (cfiCond29) ?RET_LOW load(1, XDATA, add(CFA_XSP16, literal(-5)))
          CFI (cfiCond29) ?RET_HIGH load(1, XDATA, add(CFA_XSP16, literal(-4)))
          CFI (cfiCond29) ?BRET_EXT load(1, XDATA, add(CFA_XSP16, literal(-3)))
          CFI (cfiCond29) DPL0 load(1, XDATA, add(CFA_XSP16, literal(-2)))
          CFI (cfiCond29) DPH0 load(1, XDATA, add(CFA_XSP16, literal(-1)))
          CFI (cfiCond29) CFA_SP SP+-2
          CFI (cfiCond29) CFA_XSP16 add(XSP16, 11)
          CFI Block cfiCond30 Using cfiCommon0
          CFI (cfiCond30) Function SampleApp_MessageMSGCB
          CFI (cfiCond30) Conditional ??CrossCallReturnLabel_18
          CFI (cfiCond30) R6 load(1, XDATA, add(CFA_XSP16, literal(-10)))
          CFI (cfiCond30) VB load(1, XDATA, add(CFA_XSP16, literal(-9)))
          CFI (cfiCond30) V0 load(1, XDATA, add(CFA_XSP16, literal(-8)))
          CFI (cfiCond30) V1 load(1, XDATA, add(CFA_XSP16, literal(-7)))
          CFI (cfiCond30) R7 load(1, XDATA, add(CFA_XSP16, literal(-6)))
          CFI (cfiCond30) ?RET_LOW load(1, XDATA, add(CFA_XSP16, literal(-5)))
          CFI (cfiCond30) ?RET_HIGH load(1, XDATA, add(CFA_XSP16, literal(-4)))
          CFI (cfiCond30) ?BRET_EXT load(1, XDATA, add(CFA_XSP16, literal(-3)))
          CFI (cfiCond30) DPL0 load(1, XDATA, add(CFA_XSP16, literal(-2)))
          CFI (cfiCond30) DPH0 load(1, XDATA, add(CFA_XSP16, literal(-1)))
          CFI (cfiCond30) CFA_SP SP+-2
          CFI (cfiCond30) CFA_XSP16 add(XSP16, 11)
          CFI Block cfiCond31 Using cfiCommon0
          CFI (cfiCond31) Function SampleApp_CallBack
          CFI (cfiCond31) Conditional ??CrossCallReturnLabel_19
          CFI (cfiCond31) R6 load(1, XDATA, add(CFA_XSP16, literal(-10)))
          CFI (cfiCond31) VB load(1, XDATA, add(CFA_XSP16, literal(-9)))
          CFI (cfiCond31) V0 load(1, XDATA, add(CFA_XSP16, literal(-8)))
          CFI (cfiCond31) V1 load(1, XDATA, add(CFA_XSP16, literal(-7)))
          CFI (cfiCond31) R7 load(1, XDATA, add(CFA_XSP16, literal(-6)))
          CFI (cfiCond31) ?RET_LOW load(1, XDATA, add(CFA_XSP16, literal(-5)))
          CFI (cfiCond31) ?RET_HIGH load(1, XDATA, add(CFA_XSP16, literal(-4)))
          CFI (cfiCond31) ?BRET_EXT load(1, XDATA, add(CFA_XSP16, literal(-3)))
          CFI (cfiCond31) DPL0 load(1, XDATA, add(CFA_XSP16, literal(-2)))
          CFI (cfiCond31) DPH0 load(1, XDATA, add(CFA_XSP16, literal(-1)))
          CFI (cfiCond31) CFA_SP SP+-2
          CFI (cfiCond31) CFA_XSP16 add(XSP16, 92)
          CFI Block cfiCond32 Using cfiCommon0
          CFI (cfiCond32) Function SampleApp_HandleKeys
          CFI (cfiCond32) Conditional ??CrossCallReturnLabel_9
          CFI (cfiCond32) R6 load(1, XDATA, add(CFA_XSP16, literal(-11)))
          CFI (cfiCond32) VB load(1, XDATA, add(CFA_XSP16, literal(-10)))
          CFI (cfiCond32) V0 load(1, XDATA, add(CFA_XSP16, literal(-9)))
          CFI (cfiCond32) V1 load(1, XDATA, add(CFA_XSP16, literal(-8)))
          CFI (cfiCond32) V2 load(1, XDATA, add(CFA_XSP16, literal(-7)))
          CFI (cfiCond32) R7 load(1, XDATA, add(CFA_XSP16, literal(-6)))
          CFI (cfiCond32) ?RET_LOW load(1, XDATA, add(CFA_XSP16, literal(-5)))
          CFI (cfiCond32) ?RET_HIGH load(1, XDATA, add(CFA_XSP16, literal(-4)))
          CFI (cfiCond32) ?BRET_EXT load(1, XDATA, add(CFA_XSP16, literal(-3)))
          CFI (cfiCond32) DPL0 load(1, XDATA, add(CFA_XSP16, literal(-2)))
          CFI (cfiCond32) DPH0 load(1, XDATA, add(CFA_XSP16, literal(-1)))
          CFI (cfiCond32) CFA_SP SP+-2
          CFI (cfiCond32) CFA_XSP16 add(XSP16, 12)
          CFI Block cfiCond33 Using cfiCommon0
          CFI (cfiCond33) Function SampleApp_HandleKeys
          CFI (cfiCond33) Conditional ??CrossCallReturnLabel_10
          CFI (cfiCond33) R6 load(1, XDATA, add(CFA_XSP16, literal(-11)))
          CFI (cfiCond33) VB load(1, XDATA, add(CFA_XSP16, literal(-10)))
          CFI (cfiCond33) V0 load(1, XDATA, add(CFA_XSP16, literal(-9)))
          CFI (cfiCond33) V1 load(1, XDATA, add(CFA_XSP16, literal(-8)))
          CFI (cfiCond33) V2 load(1, XDATA, add(CFA_XSP16, literal(-7)))
          CFI (cfiCond33) R7 load(1, XDATA, add(CFA_XSP16, literal(-6)))
          CFI (cfiCond33) ?RET_LOW load(1, XDATA, add(CFA_XSP16, literal(-5)))
          CFI (cfiCond33) ?RET_HIGH load(1, XDATA, add(CFA_XSP16, literal(-4)))
          CFI (cfiCond33) ?BRET_EXT load(1, XDATA, add(CFA_XSP16, literal(-3)))
          CFI (cfiCond33) DPL0 load(1, XDATA, add(CFA_XSP16, literal(-2)))
          CFI (cfiCond33) DPH0 load(1, XDATA, add(CFA_XSP16, literal(-1)))
          CFI (cfiCond33) CFA_SP SP+-2
          CFI (cfiCond33) CFA_XSP16 add(XSP16, 12)
          CFI Block cfiPicker34 Using cfiCommon1
          CFI (cfiPicker34) NoFunction
          CFI (cfiPicker34) Picker
        LCALL     `??HalLcdWriteStringValue::?relay`; Banked call to: HalLcdWriteStringValue
        MOV       A,#0x1
        RET
          CFI EndBlock cfiCond23
          CFI EndBlock cfiCond24
          CFI EndBlock cfiCond25
          CFI EndBlock cfiCond26
          CFI EndBlock cfiCond27
          CFI EndBlock cfiCond28
          CFI EndBlock cfiCond29
          CFI EndBlock cfiCond30
          CFI EndBlock cfiCond31
          CFI EndBlock cfiCond32
          CFI EndBlock cfiCond33
          CFI EndBlock cfiPicker34
//  722 
//  723 /*********************************************************************
//  724  * @fn      SampleApp_SendPeriodicMessage
//  725  *
//  726  * @brief   Send the periodic message.
//  727  *
//  728  * @param   none
//  729  *
//  730  * @return  none
//  731  */

        RSEG BANKED_CODE:HUGECODE:NOROOT(0)
//  732 void SampleApp_SendPeriodicMessage( void )
SampleApp_SendPeriodicMessage:
          CFI Block cfiBlock35 Using cfiCommon0
          CFI Function SampleApp_SendPeriodicMessage
        CODE
//  733 {
        FUNCALL SampleApp_SendPeriodicMessage, AF_DataRequest
        LOCFRAME ISTACK, 0, STACK
        LOCFRAME PSTACK, 0, STACK
        LOCFRAME XSTACK, 19, STACK
        LOCFRAME IOVERLAY, 0, STATIC
        LOCFRAME DOVERLAY, 0, STATIC
        ARGFRAME ISTACK, 0, STACK
        ARGFRAME PSTACK, 0, STACK
        ARGFRAME XSTACK, 19, STACK
        ARGFRAME IOVERLAY, 0, STATIC
        ARGFRAME DOVERLAY, 0, STATIC
        REQUIRE ?V0
        REQUIRE ?V1
        MOV       A,#-0xa
        LCALL     ?BANKED_ENTER_XDATA
          CFI DPH0 load(1, XDATA, add(CFA_XSP16, literal(-1)))
          CFI DPL0 load(1, XDATA, add(CFA_XSP16, literal(-2)))
          CFI ?BRET_EXT load(1, XDATA, add(CFA_XSP16, literal(-3)))
          CFI ?RET_HIGH load(1, XDATA, add(CFA_XSP16, literal(-4)))
          CFI ?RET_LOW load(1, XDATA, add(CFA_XSP16, literal(-5)))
          CFI R7 load(1, XDATA, add(CFA_XSP16, literal(-6)))
          CFI V1 load(1, XDATA, add(CFA_XSP16, literal(-7)))
          CFI V0 load(1, XDATA, add(CFA_XSP16, literal(-8)))
          CFI VB load(1, XDATA, add(CFA_XSP16, literal(-9)))
          CFI R6 load(1, XDATA, add(CFA_XSP16, literal(-10)))
          CFI CFA_SP SP+0
          CFI CFA_XSP16 add(XSP16, 10)
        ; Saved register size: 10
        ; Auto size: 0
//  734   if ( AF_DataRequest( &SampleApp_Periodic_DstAddr, &SampleApp_epDesc,
//  735                        SAMPLEAPP_PERIODIC_CLUSTERID,
//  736                        1,
//  737                        (uint8*)&SampleAppPeriodicCounter,
//  738                        &SampleApp_TransID,
//  739                        AF_DISCV_ROUTE,
//  740                        AF_DEFAULT_RADIUS ) == afStatus_SUCCESS )
        ; Setup parameters for call to function AF_DataRequest
        MOV       ?V0,#0x1e
        MOV       R0,#?V0
        LCALL     ?PUSH_XSTACK_I_ONE
          CFI CFA_XSP16 add(XSP16, 11)
        MOV       ?V0,#SampleApp_TransID & 0xff
        MOV       ?V1,#(SampleApp_TransID >> 8) & 0xff
        MOV       R0,#?V0
        LCALL     ?PUSH_XSTACK_I_TWO
          CFI CFA_XSP16 add(XSP16, 13)
        MOV       ?V0,#SampleAppPeriodicCounter & 0xff
        MOV       ?V1,#(SampleAppPeriodicCounter >> 8) & 0xff
        MOV       R0,#?V0
        LCALL     ?PUSH_XSTACK_I_TWO
          CFI CFA_XSP16 add(XSP16, 15)
        MOV       ?V0,#0x1
        MOV       ?V1,#0x0
        MOV       R0,#?V0
        LCALL     ?PUSH_XSTACK_I_TWO
          CFI CFA_XSP16 add(XSP16, 17)
        MOV       R0,#?V0
        LCALL     ?PUSH_XSTACK_I_TWO
          CFI CFA_XSP16 add(XSP16, 19)
        MOV       R1,#0x20
        MOV       R4,#SampleApp_epDesc & 0xff
        MOV       R5,#(SampleApp_epDesc >> 8) & 0xff
        MOV       R2,#SampleApp_Periodic_DstAddr & 0xff
        MOV       R3,#(SampleApp_Periodic_DstAddr >> 8) & 0xff
        LCALL     `??AF_DataRequest::?relay`; Banked call to: AF_DataRequest
        MOV       A,#0x9
        LJMP      ?Subroutine1 & 0xFFFF
//  741   {
//  742   }
//  743   else
//  744   {
//  745     // Error occurred in request to send.
//  746   }
//  747 }
          CFI EndBlock cfiBlock35
//  748 
//  749 /*********************************************************************
//  750  * @fn      SampleApp_SendFlashMessage
//  751  *
//  752  * @brief   Send the flash message to group 1.
//  753  *
//  754  * @param   flashTime - in milliseconds
//  755  *
//  756  * @return  none
//  757  */

        RSEG BANKED_CODE:HUGECODE:NOROOT(0)
//  758 void SampleApp_SendFlashMessage( uint16 flashTime )
SampleApp_SendFlashMessage:
          CFI Block cfiBlock36 Using cfiCommon0
          CFI Function SampleApp_SendFlashMessage
        CODE
//  759 {
        FUNCALL SampleApp_SendFlashMessage, AF_DataRequest
        LOCFRAME ISTACK, 0, STACK
        LOCFRAME PSTACK, 0, STACK
        LOCFRAME XSTACK, 22, STACK
        LOCFRAME IOVERLAY, 0, STATIC
        LOCFRAME DOVERLAY, 0, STATIC
        ARGFRAME ISTACK, 0, STACK
        ARGFRAME PSTACK, 0, STACK
        ARGFRAME XSTACK, 22, STACK
        ARGFRAME IOVERLAY, 0, STATIC
        ARGFRAME DOVERLAY, 0, STATIC
        REQUIRE ?V0
        REQUIRE ?V1
        MOV       A,#-0xa
        LCALL     ?BANKED_ENTER_XDATA
          CFI DPH0 load(1, XDATA, add(CFA_XSP16, literal(-1)))
          CFI DPL0 load(1, XDATA, add(CFA_XSP16, literal(-2)))
          CFI ?BRET_EXT load(1, XDATA, add(CFA_XSP16, literal(-3)))
          CFI ?RET_HIGH load(1, XDATA, add(CFA_XSP16, literal(-4)))
          CFI ?RET_LOW load(1, XDATA, add(CFA_XSP16, literal(-5)))
          CFI R7 load(1, XDATA, add(CFA_XSP16, literal(-6)))
          CFI V1 load(1, XDATA, add(CFA_XSP16, literal(-7)))
          CFI V0 load(1, XDATA, add(CFA_XSP16, literal(-8)))
          CFI VB load(1, XDATA, add(CFA_XSP16, literal(-9)))
          CFI R6 load(1, XDATA, add(CFA_XSP16, literal(-10)))
          CFI CFA_SP SP+0
          CFI CFA_XSP16 add(XSP16, 10)
        ; Saved register size: 10
        ; Auto size: 3
        MOV       A,#-0x3
        LCALL     ?ALLOC_XSTACK8
          CFI CFA_XSP16 add(XSP16, 13)
//  760   uint8 buffer[3];
//  761   buffer[0] = (uint8)(SampleAppFlashCounter++);
        MOV       DPTR,#SampleAppFlashCounter
        MOVX      A,@DPTR
        MOV       DPL,?XSP + 0
        MOV       DPH,?XSP + 1
        MOVX      @DPTR,A
        MOV       DPTR,#SampleAppFlashCounter
        MOVX      A,@DPTR
        INC       A
        MOVX      @DPTR,A
//  762   buffer[1] = LO_UINT16( flashTime );
        MOV       A,#0x1
        LCALL     ?XSTACK_DISP0_8
        MOV       A,R2
        MOVX      @DPTR,A
//  763   buffer[2] = HI_UINT16( flashTime );
        MOV       A,#0x2
        LCALL     ?XSTACK_DISP0_8
        MOV       A,R3
        MOVX      @DPTR,A
//  764 
//  765   if ( AF_DataRequest( &SampleApp_Flash_DstAddr, &SampleApp_epDesc,
//  766                        SAMPLEAPP_FLASH_CLUSTERID,
//  767                        3,
//  768                        buffer,
//  769                        &SampleApp_TransID,
//  770                        AF_DISCV_ROUTE,
//  771                        AF_DEFAULT_RADIUS ) == afStatus_SUCCESS )
        ; Setup parameters for call to function AF_DataRequest
        MOV       ?V0,#0x1e
        MOV       R0,#?V0
        LCALL     ?PUSH_XSTACK_I_ONE
          CFI CFA_XSP16 add(XSP16, 14)
        MOV       ?V0,#SampleApp_TransID & 0xff
        MOV       ?V1,#(SampleApp_TransID >> 8) & 0xff
        MOV       R0,#?V0
        LCALL     ?PUSH_XSTACK_I_TWO
          CFI CFA_XSP16 add(XSP16, 16)
        MOV       A,#0x3
        LCALL     ?XSTACK_DISP100_8
        MOV       ?V0,R0
        MOV       ?V1,R1
        MOV       R0,#?V0
        LCALL     ?PUSH_XSTACK_I_TWO
          CFI CFA_XSP16 add(XSP16, 18)
        MOV       ?V0,#0x3
        MOV       ?V1,#0x0
        MOV       R0,#?V0
        LCALL     ?PUSH_XSTACK_I_TWO
          CFI CFA_XSP16 add(XSP16, 20)
        MOV       ?V0,#0x2
        MOV       R0,#?V0
        LCALL     ?PUSH_XSTACK_I_TWO
          CFI CFA_XSP16 add(XSP16, 22)
        MOV       R1,#0x20
        MOV       R4,#SampleApp_epDesc & 0xff
        MOV       R5,#(SampleApp_epDesc >> 8) & 0xff
        MOV       R2,#SampleApp_Flash_DstAddr & 0xff
        MOV       R3,#(SampleApp_Flash_DstAddr >> 8) & 0xff
        LCALL     `??AF_DataRequest::?relay`; Banked call to: AF_DataRequest
        MOV       A,#0x9
        LCALL     ?DEALLOC_XSTACK8
          CFI CFA_XSP16 add(XSP16, 13)
//  772   {
//  773   }
//  774   else
//  775   {
//  776     // Error occurred in request to send.
//  777   }
//  778 }
        MOV       A,#0x3
        SJMP      ?Subroutine1
          CFI EndBlock cfiBlock36
//  779 
//  780 /*********************************************************************
//  781 *********************************************************************/
//  782 
//  783 /*********************************************************************
//  784  * @fn      SampleApp_CallBack
//  785  *
//  786  * @brief   Send data OTA.
//  787  *
//  788  * @param   port - UART port.
//  789  * @param   event - the UART port event flag.
//  790  *
//  791  * @return  none
//  792  */
//  793 

        RSEG BANKED_CODE:HUGECODE:NOROOT(0)
//  794 static void SampleApp_CallBack(uint8 port, uint8 event)
SampleApp_CallBack:
          CFI Block cfiBlock37 Using cfiCommon0
          CFI Function SampleApp_CallBack
        CODE
//  795 {
        FUNCALL SampleApp_CallBack, HalUARTRead
        LOCFRAME ISTACK, 0, STACK
        LOCFRAME PSTACK, 0, STACK
        LOCFRAME XSTACK, 91, STACK
        LOCFRAME IOVERLAY, 0, STATIC
        LOCFRAME DOVERLAY, 0, STATIC
        ARGFRAME ISTACK, 0, STACK
        ARGFRAME PSTACK, 0, STACK
        ARGFRAME XSTACK, 91, STACK
        ARGFRAME IOVERLAY, 0, STATIC
        ARGFRAME DOVERLAY, 0, STATIC
        FUNCALL SampleApp_CallBack, HalLcdWriteStringValue
        LOCFRAME ISTACK, 0, STACK
        LOCFRAME PSTACK, 0, STACK
        LOCFRAME XSTACK, 92, STACK
        LOCFRAME IOVERLAY, 0, STATIC
        LOCFRAME DOVERLAY, 0, STATIC
        ARGFRAME ISTACK, 0, STACK
        ARGFRAME PSTACK, 0, STACK
        ARGFRAME XSTACK, 92, STACK
        ARGFRAME IOVERLAY, 0, STATIC
        ARGFRAME DOVERLAY, 0, STATIC
        REQUIRE ?V0
        REQUIRE ?V1
        MOV       A,#-0xa
        LCALL     ?BANKED_ENTER_XDATA
          CFI DPH0 load(1, XDATA, add(CFA_XSP16, literal(-1)))
          CFI DPL0 load(1, XDATA, add(CFA_XSP16, literal(-2)))
          CFI ?BRET_EXT load(1, XDATA, add(CFA_XSP16, literal(-3)))
          CFI ?RET_HIGH load(1, XDATA, add(CFA_XSP16, literal(-4)))
          CFI ?RET_LOW load(1, XDATA, add(CFA_XSP16, literal(-5)))
          CFI R7 load(1, XDATA, add(CFA_XSP16, literal(-6)))
          CFI V1 load(1, XDATA, add(CFA_XSP16, literal(-7)))
          CFI V0 load(1, XDATA, add(CFA_XSP16, literal(-8)))
          CFI VB load(1, XDATA, add(CFA_XSP16, literal(-9)))
          CFI R6 load(1, XDATA, add(CFA_XSP16, literal(-10)))
          CFI CFA_SP SP+0
          CFI CFA_XSP16 add(XSP16, 10)
        ; Saved register size: 10
        ; Auto size: 81
        MOV       A,#-0x51
        LCALL     ?ALLOC_XSTACK8
          CFI CFA_XSP16 add(XSP16, 91)
        MOV       A,R2
        MOV       R6,A
//  796   (void)port;
//  797   uint8 localBuf[81];
//  798   uint16 receivedUARTLen;
//  799 
//  800   /*
//  801   if((event & (HAL_UART_TX_FULL | HAL_UART_TX_ABOUT_FULL))
//  802   {}
//  803   */
//  804   if ((event & (HAL_UART_RX_FULL | HAL_UART_RX_ABOUT_FULL | HAL_UART_RX_TIMEOUT)) &&
//  805 #if SERIAL_APP_LOOPBACK
//  806       (SampleApp_TxLen < SERIAL_APP_TX_MAX))
//  807 #else
//  808       !SampleApp_TxLen)
        MOV       A,#0x7
        ANL       A,R6
        JZ        ??SampleApp_CallBack_0
        MOV       DPTR,#SampleApp_TxLen
        MOVX      A,@DPTR
        JNZ       ??SampleApp_CallBack_0
//  809 #endif
//  810   {
//  811     // buffer needed to be emptied for the new liner
//  812     for(int i = 0; i < 81; i++){
//  813       localBuf[i] = 0;
        CLR       A
        MOV       DPL,?XSP + 0
        MOV       DPH,?XSP + 1
        MOV       R0,#0x51
??SampleApp_CallBack_1:
        MOVX      @DPTR,A
        INC       DPTR
        DJNZ      R0,??SampleApp_CallBack_1
//  814     }   
//  815     receivedUARTLen= HalUARTRead(SAMPLE_APP_PORT, localBuf, SAMPLE_APP_TX_MAX);
        ; Setup parameters for call to function HalUARTRead
        MOV       R4,#-0x80
        MOV       R5,A
        MOV       R2,?XSP + 0
        MOV       R3,?XSP + 1
        MOV       R1,A
        LCALL     `??HalUARTRead::?relay`; Banked call to: HalUARTRead
        MOV       ?V0,R2
        MOV       ?V1,R3
        MOV       R4,?V0
        MOV       R5,?V1
//  816     HalLcdWriteStringValue( localBuf,  receivedUARTLen, 16, HAL_LCD_LINE_3 ); 
        ; Setup parameters for call to function HalLcdWriteStringValue
        MOV       ?V0,#0x3
        MOV       R0,#?V0
        LCALL     ?PUSH_XSTACK_I_ONE
          CFI CFA_XSP16 add(XSP16, 92)
        MOV       R1,#0x10
        MOV       A,#0x1
        LCALL     ?XSTACK_DISP101_8
        LCALL     ??Subroutine6_0 & 0xFFFF
//  817     
//  818     
//  819     //HalUARTWrite(SAMPLE_APP_PORT, *localBuf, 81);
//  820     //SampleApp_Send();
//  821   }
??CrossCallReturnLabel_19:
        LCALL     ?DEALLOC_XSTACK8
          CFI CFA_XSP16 add(XSP16, 91)
//  822 }
??SampleApp_CallBack_0:
        MOV       A,#0x51
          CFI EndBlock cfiBlock37
        REQUIRE ?Subroutine1
        ; // Fall through to label ?Subroutine1

        RSEG BANKED_CODE:HUGECODE:NOROOT(0)
?Subroutine1:
          CFI Block cfiBlock38 Using cfiCommon0
          CFI NoFunction
          CFI CFA_SP SP+0
          CFI CFA_XSP16 add(XSP16, 19)
          CFI VB load(1, XDATA, add(CFA_XSP16, literal(-9)))
          CFI DPL0 load(1, XDATA, add(CFA_XSP16, literal(-2)))
          CFI DPH0 load(1, XDATA, add(CFA_XSP16, literal(-1)))
          CFI R6 load(1, XDATA, add(CFA_XSP16, literal(-10)))
          CFI R7 load(1, XDATA, add(CFA_XSP16, literal(-6)))
          CFI V0 load(1, XDATA, add(CFA_XSP16, literal(-8)))
          CFI V1 load(1, XDATA, add(CFA_XSP16, literal(-7)))
          CFI ?BRET_EXT load(1, XDATA, add(CFA_XSP16, literal(-3)))
          CFI ?RET_HIGH load(1, XDATA, add(CFA_XSP16, literal(-4)))
          CFI ?RET_LOW load(1, XDATA, add(CFA_XSP16, literal(-5)))
          CFI Invalid
        LCALL     ?DEALLOC_XSTACK8
          CFI EndBlock cfiBlock38
        REQUIRE ??Subroutine7_0
        ; // Fall through to label ??Subroutine7_0

        RSEG BANKED_CODE:HUGECODE:NOROOT(0)
??Subroutine7_0:
          CFI Block cfiBlock39 Using cfiCommon0
          CFI NoFunction
          CFI CFA_SP SP+0
          CFI CFA_XSP16 add(XSP16, 10)
          CFI VB load(1, XDATA, add(CFA_XSP16, literal(-9)))
          CFI DPL0 load(1, XDATA, add(CFA_XSP16, literal(-2)))
          CFI DPH0 load(1, XDATA, add(CFA_XSP16, literal(-1)))
          CFI R6 load(1, XDATA, add(CFA_XSP16, literal(-10)))
          CFI R7 load(1, XDATA, add(CFA_XSP16, literal(-6)))
          CFI V0 load(1, XDATA, add(CFA_XSP16, literal(-8)))
          CFI V1 load(1, XDATA, add(CFA_XSP16, literal(-7)))
          CFI ?BRET_EXT load(1, XDATA, add(CFA_XSP16, literal(-3)))
          CFI ?RET_HIGH load(1, XDATA, add(CFA_XSP16, literal(-4)))
          CFI ?RET_LOW load(1, XDATA, add(CFA_XSP16, literal(-5)))
        MOV       R7,#0x2
        LJMP      ?BANKED_LEAVE_XDATA
          CFI EndBlock cfiBlock39

        RSEG XDATA_ID:CODE:NOROOT(0)
`?<Initializer for receiveData>`:
        DATA16
        DW 0
        DW 0
        DATA32
        DD 0
        DATA8
        DB 0
        DB 0
        DATA16
        DW 0
        DW 0
        DATA8
        DB 0
        DB 0
        DB 0
        DB "nothing"
        DB 0, 0

        RSEG BANK_RELAYS:CODE:REORDER:NOROOT(0)
`??SampleApp_Init::?relay`:
        CODE
        LCALL   ?BDISPATCH
        DATA24
        DC24    SampleApp_Init

        RSEG BANK_RELAYS:CODE:REORDER:NOROOT(0)
`??SampleApp_ProcessEvent::?relay`:
        CODE
        LCALL   ?BDISPATCH
        DATA24
        DC24    SampleApp_ProcessEvent

        RSEG BANK_RELAYS:CODE:REORDER:NOROOT(0)
`??SampleApp_HandleKeys::?relay`:
        CODE
        LCALL   ?BDISPATCH
        DATA24
        DC24    SampleApp_HandleKeys

        RSEG BANK_RELAYS:CODE:REORDER:NOROOT(0)
`??SampleApp_MessageMSGCB::?relay`:
        CODE
        LCALL   ?BDISPATCH
        DATA24
        DC24    SampleApp_MessageMSGCB

        RSEG BANK_RELAYS:CODE:REORDER:NOROOT(0)
`??SampleApp_SendPeriodicMessage::?relay`:
        CODE
        LCALL   ?BDISPATCH
        DATA24
        DC24    SampleApp_SendPeriodicMessage

        RSEG BANK_RELAYS:CODE:REORDER:NOROOT(0)
`??SampleApp_SendFlashMessage::?relay`:
        CODE
        LCALL   ?BDISPATCH
        DATA24
        DC24    SampleApp_SendFlashMessage

        RSEG BANK_RELAYS:CODE:REORDER:NOROOT(0)
`??SampleApp_CallBack::?relay`:
        CODE
        LCALL   ?BDISPATCH
        DATA24
        DC24    SampleApp_CallBack

        RSEG XDATA_ROM_C:CONST:REORDER:NOROOT(0)
        DATA8
`?<Constant "Group 1">`:
        DB "Group 1"

        RSEG XDATA_ROM_C:CONST:REORDER:NOROOT(0)
        DATA8
`?<Constant "SerialApp+Labs">`:
        DB "SerialApp+Labs"

        RSEG XDATA_ROM_C:CONST:REORDER:NOROOT(0)
        DATA8
`?<Constant "Temperature:">`:
        DB "Temperature:"

        RSEG XDATA_ROM_C:CONST:REORDER:NOROOT(0)
        DATA8
`?<Constant "Water Level:">`:
        DB "Water Level:"

        RSEG XDATA_ROM_C:CONST:REORDER:NOROOT(0)
        DATA8
`?<Constant "Flow Rate:">`:
        DB "Flow Rate:"

        RSEG XDATA_ROM_C:CONST:REORDER:NOROOT(0)
        DATA32
`?<Constant "pH:">`:
        DB "pH:"

        RSEG XDATA_ROM_C:CONST:REORDER:NOROOT(0)
        DATA8
`?<Constant "Battery Level:">`:
        DB "Battery Level:"

        RSEG XDATA_ROM_C:CONST:REORDER:NOROOT(0)
        DATA8
`?<Constant "Latitude:">`:
        DB "Latitude:"

        RSEG XDATA_ROM_C:CONST:REORDER:NOROOT(0)
        DATA8
`?<Constant "Longitude:">`:
        DB "Longitude:"

        RSEG XDATA_ROM_C:CONST:REORDER:NOROOT(0)
        DATA8
`?<Constant ",temp:%d:\\n,water:%d:\\n...">`:
        DB 2CH, 74H, 65H, 6DH, 70H, 3AH, 25H, 64H
        DB 3AH, 0AH, 2CH, 77H, 61H, 74H, 65H, 72H
        DB 3AH, 25H, 64H, 3AH, 0AH, 2CH, 66H, 6CH
        DB 6FH, 77H, 3AH, 25H, 64H, 3AH, 0AH, 2CH
        DB 50H, 48H, 3AH, 25H, 64H, 3AH, 0AH, 2CH
        DB 62H, 61H, 74H, 74H, 3AH, 25H, 64H, 3AH
        DB 0AH, 2CH, 6CH, 61H, 74H, 3AH, 25H, 64H
        DB 3AH, 0AH, 2CH, 6CH, 6FH, 6EH, 67H, 3AH
        DB 25H, 64H, 3AH, 0AH, 2CH, 73H, 65H, 6EH
        DB 73H, 4FH, 6BH, 61H, 79H, 3AH, 25H, 64H
        DB 3AH, 0AH, 2CH, 65H, 72H, 72H, 3AH, 25H
        DB 64H, 3AH, 0AH, 2CH, 6FH, 6BH, 3AH, 31H
        DB 3AH, 0AH, 0

        RSEG XDATA_ROM_C:CONST:REORDER:NOROOT(0)
        DATA8
`?<Constant "Data Size:">`:
        DB "Data Size:"

        RSEG XDATA_ROM_C:CONST:REORDER:NOROOT(0)
        DATA8
`?<Constant "Byte: ">`:
        DB "Byte: "

        END
//  823 
//  824 
//  825 /*********************************************************************
//  826 *********************************************************************/
// 
// 1 237 bytes in segment BANKED_CODE
//    42 bytes in segment BANK_RELAYS
//    27 bytes in segment XDATA_I
//    27 bytes in segment XDATA_ID
//   247 bytes in segment XDATA_ROM_C
//   321 bytes in segment XDATA_Z
// 
//    69 bytes of CODE     memory
//   247 bytes of CONST    memory
// 1 237 bytes of HUGECODE memory
//   348 bytes of XDATA    memory
//
//Errors: none
//Warnings: 10
