///////////////////////////////////////////////////////////////////////////////
//
// IAR C/C++ Compiler V10.20.1.5333 for 8051              19/Sep/2018  14:13:03
// Copyright 2004-2018 IAR Systems AB.
// Evaluation license - IAR Embedded Workbench for 8051, Evaluation version 10.20
//
//    Core               =  plain
//    Code model         =  banked
//    Data model         =  large
//    Calling convention =  xdata reentrant
//    Constant location  =  data_rom
//    Dptr setup         =  1,16
//                          
//    Source file        =  
//        C:\Users\Re\Documents\ZStack\ZStack-CC2530-2.3.1\Components\mt\MT_AF.c
//    Command line       =  
//        -f C:\Users\Re\AppData\Local\Temp\EW9351.tmp
//        (C:\Users\Re\Documents\ZStack\ZStack-CC2530-2.3.1\Components\mt\MT_AF.c
//        -D ZIGBEEPRO -D BUILD_ALL_DEVICES -D HOLD_AUTO_START -D LCD_SUPPORTED
//        -D HAL_UART=FALSE -lC
//        C:\Users\Re\Documents\ZStack\ZStack-CC2530-2.3.1\Projects\zstack\Samples\SampleApp\CC2530DB\DemoEB-Pro\List
//        -lA
//        C:\Users\Re\Documents\ZStack\ZStack-CC2530-2.3.1\Projects\zstack\Samples\SampleApp\CC2530DB\DemoEB-Pro\List
//        --diag_suppress Pe001,Pa010 -o
//        C:\Users\Re\Documents\ZStack\ZStack-CC2530-2.3.1\Projects\zstack\Samples\SampleApp\CC2530DB\DemoEB-Pro\Obj
//        -e --debug --core=plain --dptr=16,1 --data_model=large
//        --code_model=banked --calling_convention=xdata_reentrant
//        --place_constants=data_rom --nr_virtual_regs 16 -f
//        C:\Users\Re\Documents\ZStack\ZStack-CC2530-2.3.1\Projects\zstack\Samples\SampleApp\CC2530DB\..\..\..\Tools\CC2530DB\f8wCoord.cfg
//        (-DCPU32MHZ -DROOT=__near_func -DMAC_CFG_APP_PENDING_QUEUE=TRUE
//        -DMAC_CFG_TX_DATA_MAX=5 -DMAC_CFG_TX_MAX=8 -DMAC_CFG_RX_MAX=5
//        -DZDO_COORDINATOR -DRTR_NWK) -f
//        C:\Users\Re\Documents\ZStack\ZStack-CC2530-2.3.1\Projects\zstack\Samples\SampleApp\CC2530DB\..\..\..\Tools\CC2530DB\f8wConfig.cfg
//        (-DSECURE=0 -DZG_SECURE_DYNAMIC=0 -DREFLECTOR
//        -DDEFAULT_CHANLIST=0x00000800 -DZDAPP_CONFIG_PAN_ID=0xFFFF
//        -DNWK_START_DELAY=100 -DEXTENDED_JOINING_RANDOM_MASK=0x007F
//        -DBEACON_REQUEST_DELAY=100 -DBEACON_REQ_DELAY_MASK=0x00FF
//        -DLINK_STATUS_JITTER_MASK=0x007F -DROUTE_EXPIRY_TIME=30
//        -DAPSC_ACK_WAIT_DURATION_POLLED=3000 -DNWK_INDIRECT_MSG_TIMEOUT=7
//        -DMAX_RREQ_ENTRIES=8 -DAPSC_MAX_FRAME_RETRIES=3
//        -DNWK_MAX_DATA_RETRIES=2 -DMAX_POLL_FAILURE_RETRIES=2 -DMAX_BCAST=9
//        -DAPS_MAX_GROUPS=16 -DMAX_RTG_ENTRIES=40 -DNWK_MAX_BINDING_ENTRIES=4
//        -DMAX_BINDING_CLUSTER_IDS=4 "-DDEFAULT_KEY={0x01, 0x03, 0x05, 0x07,
//        0x09, 0x0B, 0x0D, 0x0F, 0x00, 0x02, 0x04, 0x06, 0x08, 0x0A, 0x0C,
//        0x0D}" -DMAC_MAX_FRAME_SIZE=116 -DZDNWKMGR_MIN_TRANSMISSIONS=20
//        "-DCONST=const __code" -DGENERIC=__generic -DRFD_RCVC_ALWAYS_ON=FALSE
//        -DPOLL_RATE=1000 -DQUEUED_POLL_RATE=100 -DRESPONSE_POLL_RATE=100
//        -DREJOIN_POLL_RATE=440) -I
//        C:\Users\Re\Documents\ZStack\ZStack-CC2530-2.3.1\Projects\zstack\Samples\SampleApp\CC2530DB\
//        -I
//        C:\Users\Re\Documents\ZStack\ZStack-CC2530-2.3.1\Projects\zstack\Samples\SampleApp\CC2530DB\..\SOURCE\
//        -I
//        C:\Users\Re\Documents\ZStack\ZStack-CC2530-2.3.1\Projects\zstack\Samples\SampleApp\CC2530DB\..\..\..\ZMAIN\TI2530DB\
//        -I
//        C:\Users\Re\Documents\ZStack\ZStack-CC2530-2.3.1\Projects\zstack\Samples\SampleApp\CC2530DB\..\..\..\..\..\COMPONENTS\MT\
//        -I
//        C:\Users\Re\Documents\ZStack\ZStack-CC2530-2.3.1\Projects\zstack\Samples\SampleApp\CC2530DB\..\..\..\..\..\COMPONENTS\HAL\INCLUDE\
//        -I
//        C:\Users\Re\Documents\ZStack\ZStack-CC2530-2.3.1\Projects\zstack\Samples\SampleApp\CC2530DB\..\..\..\..\..\COMPONENTS\HAL\TARGET\CC2530EB\
//        -I
//        C:\Users\Re\Documents\ZStack\ZStack-CC2530-2.3.1\Projects\zstack\Samples\SampleApp\CC2530DB\..\..\..\..\..\COMPONENTS\OSAL\MCU\CCSOC\
//        -I
//        C:\Users\Re\Documents\ZStack\ZStack-CC2530-2.3.1\Projects\zstack\Samples\SampleApp\CC2530DB\..\..\..\..\..\COMPONENTS\OSAL\INCLUDE\
//        -I
//        C:\Users\Re\Documents\ZStack\ZStack-CC2530-2.3.1\Projects\zstack\Samples\SampleApp\CC2530DB\..\..\..\..\..\COMPONENTS\STACK\AF\
//        -I
//        C:\Users\Re\Documents\ZStack\ZStack-CC2530-2.3.1\Projects\zstack\Samples\SampleApp\CC2530DB\..\..\..\..\..\COMPONENTS\STACK\NWK\
//        -I
//        C:\Users\Re\Documents\ZStack\ZStack-CC2530-2.3.1\Projects\zstack\Samples\SampleApp\CC2530DB\..\..\..\..\..\COMPONENTS\STACK\SEC\
//        -I
//        C:\Users\Re\Documents\ZStack\ZStack-CC2530-2.3.1\Projects\zstack\Samples\SampleApp\CC2530DB\..\..\..\..\..\COMPONENTS\STACK\SAPI\
//        -I
//        C:\Users\Re\Documents\ZStack\ZStack-CC2530-2.3.1\Projects\zstack\Samples\SampleApp\CC2530DB\..\..\..\..\..\COMPONENTS\STACK\SYS\
//        -I
//        C:\Users\Re\Documents\ZStack\ZStack-CC2530-2.3.1\Projects\zstack\Samples\SampleApp\CC2530DB\..\..\..\..\..\COMPONENTS\STACK\ZDO\
//        -I
//        C:\Users\Re\Documents\ZStack\ZStack-CC2530-2.3.1\Projects\zstack\Samples\SampleApp\CC2530DB\..\..\..\..\..\COMPONENTS\ZMAC\F8W\
//        -I
//        C:\Users\Re\Documents\ZStack\ZStack-CC2530-2.3.1\Projects\zstack\Samples\SampleApp\CC2530DB\..\..\..\..\..\COMPONENTS\ZMAC\
//        -I
//        C:\Users\Re\Documents\ZStack\ZStack-CC2530-2.3.1\Projects\zstack\Samples\SampleApp\CC2530DB\..\..\..\..\..\COMPONENTS\SERVICES\SADDR\
//        -I
//        C:\Users\Re\Documents\ZStack\ZStack-CC2530-2.3.1\Projects\zstack\Samples\SampleApp\CC2530DB\..\..\..\..\..\COMPONENTS\SERVICES\SDATA\
//        -I
//        C:\Users\Re\Documents\ZStack\ZStack-CC2530-2.3.1\Projects\zstack\Samples\SampleApp\CC2530DB\..\..\..\..\..\COMPONENTS\MAC\INCLUDE\
//        -I
//        C:\Users\Re\Documents\ZStack\ZStack-CC2530-2.3.1\Projects\zstack\Samples\SampleApp\CC2530DB\..\..\..\..\..\COMPONENTS\MAC\HIGH_LEVEL\
//        -I
//        C:\Users\Re\Documents\ZStack\ZStack-CC2530-2.3.1\Projects\zstack\Samples\SampleApp\CC2530DB\..\..\..\..\..\COMPONENTS\MAC\LOW_LEVEL\srf04\
//        -I
//        C:\Users\Re\Documents\ZStack\ZStack-CC2530-2.3.1\Projects\zstack\Samples\SampleApp\CC2530DB\..\..\..\..\..\COMPONENTS\MAC\LOW_LEVEL\srf04\SINGLE_CHIP\
//        -Ohz --require_prototypes)
//    Locale             =  English_AUS.1252
//    List file          =  
//        C:\Users\Re\Documents\ZStack\ZStack-CC2530-2.3.1\Projects\zstack\Samples\SampleApp\CC2530DB\DemoEB-Pro\List\MT_AF.s51
//
///////////////////////////////////////////////////////////////////////////////

        NAME MT_AF

        RTMODEL "__SystemLibrary", "CLib"
        RTMODEL "__calling_convention", "xdata_reentrant"
        RTMODEL "__code_model", "banked"
        RTMODEL "__core", "plain"
        RTMODEL "__data_model", "large"
        RTMODEL "__dptr_size", "16"
        RTMODEL "__extended_stack", "disabled"
        RTMODEL "__location_for_constants", "data"
        RTMODEL "__number_of_dptrs", "1"
        RTMODEL "__register_banks", "*"
        RTMODEL "__rt_version", "1"

        RSEG DOVERLAY:DATA:NOROOT(0)
        RSEG IOVERLAY:IDATA:NOROOT(0)
        RSEG ISTACK:IDATA:NOROOT(0)
        RSEG PSTACK:XDATA:NOROOT(0)
        RSEG XSTACK:XDATA:NOROOT(0)

        EXTERN ?V0
        EXTERN ?V1
        EXTERN ?V2
        EXTERN ?V4
        EXTERN ?V5
        EXTERN ?V3
        EXTERN ?V6
        EXTERN ?V7
        EXTERN ?V8
        EXTERN ?V9
        EXTERN ?V10
        EXTERN ?V11
        EXTERN ?V12
        EXTERN ?V13
        EXTERN ?V14
        EXTERN ?V15
        EXTERN ?ALLOC_XSTACK8
        EXTERN ?BANKED_ENTER_XDATA
        EXTERN ?BANKED_LEAVE_XDATA
        EXTERN ?BDISPATCH
        EXTERN ?BRET
        EXTERN ?DEALLOC_XSTACK8
        EXTERN ?L_ADD
        EXTERN ?L_EQ_X
        EXTERN ?L_MOV_X
        EXTERN ?L_SHL
        EXTERN ?PUSH_XSTACK8_X_TWO
        EXTERN ?PUSH_XSTACK_I_ONE
        EXTERN ?PUSH_XSTACK_I_THREE
        EXTERN ?PUSH_XSTACK_I_TWO
        EXTERN ?UL_SHR
        EXTERN ?XLOAD_R0123
        EXTERN ?XSP
        EXTERN ?XSTACK_DISP0_8
        EXTERN ?XSTACK_DISP100_8
        EXTERN ?XSTACK_DISP101_8
        EXTERN ?XSTORE_R0123
        EXTERN __INIT_XDATA_Z

        PUBLIC `??MT_AfCommandProcessing::?relay`
        FUNCTION `??MT_AfCommandProcessing::?relay`,0203H
        PUBLIC `??MT_AfDataConfirm::?relay`
        FUNCTION `??MT_AfDataConfirm::?relay`,0203H
        PUBLIC `??MT_AfDataRequest::?relay`
        FUNCTION `??MT_AfDataRequest::?relay`,0203H
        PUBLIC `??MT_AfDataRequestSrcRtg::?relay`
        FUNCTION `??MT_AfDataRequestSrcRtg::?relay`,0203H
        FUNCTION `??MT_AfDataRetrieve::?relay`,0203H
        FUNCTION `??MT_AfDataStore::?relay`,0203H
        PUBLIC `??MT_AfExec::?relay`
        FUNCTION `??MT_AfExec::?relay`,0203H
        PUBLIC `??MT_AfIncomingMsg::?relay`
        FUNCTION `??MT_AfIncomingMsg::?relay`,0203H
        PUBLIC `??MT_AfRegister::?relay`
        FUNCTION `??MT_AfRegister::?relay`,0203H
        PUBLIC MT_AfCommandProcessing
        FUNCTION MT_AfCommandProcessing,021203H
        ARGFRAME XSTACK, 0, STACK
        LOCFRAME XSTACK, 9, STACK
        PUBLIC MT_AfDataConfirm
        FUNCTION MT_AfDataConfirm,021203H
        ARGFRAME XSTACK, 0, STACK
        LOCFRAME ISTACK, 3, STACK
        LOCFRAME XSTACK, 3, STACK
        PUBLIC MT_AfDataRequest
        FUNCTION MT_AfDataRequest,0a1203H
        ARGFRAME XSTACK, 9, STACK
        ARGFRAME IOVERLAY, 0, STATIC
        ARGFRAME DOVERLAY, 0, STATIC
        LOCFRAME ISTACK, 1, STACK
        LOCFRAME XSTACK, 44, STACK
        PUBLIC MT_AfDataRequestSrcRtg
        FUNCTION MT_AfDataRequestSrcRtg,0a1203H
        ARGFRAME XSTACK, 9, STACK
        ARGFRAME IOVERLAY, 0, STATIC
        ARGFRAME DOVERLAY, 0, STATIC
        LOCFRAME ISTACK, 1, STACK
        LOCFRAME XSTACK, 47, STACK
        FUNCTION MT_AfDataRetrieve,0a1203H
        ARGFRAME XSTACK, 9, STACK
        ARGFRAME IOVERLAY, 0, STATIC
        ARGFRAME DOVERLAY, 0, STATIC
        LOCFRAME ISTACK, 1, STACK
        LOCFRAME XSTACK, 25, STACK
        FUNCTION MT_AfDataStore,0a1203H
        ARGFRAME XSTACK, 9, STACK
        ARGFRAME IOVERLAY, 0, STATIC
        ARGFRAME DOVERLAY, 0, STATIC
        LOCFRAME ISTACK, 1, STACK
        LOCFRAME XSTACK, 24, STACK
        PUBLIC MT_AfExec
        FUNCTION MT_AfExec,021203H
        ARGFRAME XSTACK, 0, STACK
        LOCFRAME XSTACK, 9, STACK
        PUBLIC MT_AfIncomingMsg
        FUNCTION MT_AfIncomingMsg,0a1203H
        ARGFRAME XSTACK, 0, STACK
        LOCFRAME ISTACK, 1, STACK
        LOCFRAME XSTACK, 28, STACK
        PUBLIC MT_AfRegister
        FUNCTION MT_AfRegister,0a1203H
        ARGFRAME XSTACK, 9, STACK
        ARGFRAME IOVERLAY, 0, STATIC
        ARGFRAME DOVERLAY, 0, STATIC
        LOCFRAME ISTACK, 1, STACK
        LOCFRAME XSTACK, 15, STACK
        PUBLIC pMtAfDataReq
        PUBLIC pMtAfInMsgList
        
          CFI Names cfiNames0
          CFI StackFrame CFA_SP SP IDATA
          CFI StackFrame CFA_PSP16 PSP16 XDATA
          CFI StackFrame CFA_XSP16 XSP16 XDATA
          CFI StaticOverlayFrame CFA_IOVERLAY IOVERLAY
          CFI StaticOverlayFrame CFA_DOVERLAY DOVERLAY
          CFI Resource `PSW.CY`:1, `B.BR0`:1, `B.BR1`:1, `B.BR2`:1, `B.BR3`:1
          CFI Resource `B.BR4`:1, `B.BR5`:1, `B.BR6`:1, `B.BR7`:1, `VB.BR8`:1
          CFI Resource `VB.BR9`:1, `VB.BR10`:1, `VB.BR11`:1, `VB.BR12`:1
          CFI Resource `VB.BR13`:1, `VB.BR14`:1, `VB.BR15`:1, VB:8, B:8, A:8
          CFI Resource PSW:8, DPL0:8, DPH0:8, R0:8, R1:8, R2:8, R3:8, R4:8, R5:8
          CFI Resource R6:8, R7:8, V0:8, V1:8, V2:8, V3:8, V4:8, V5:8, V6:8, V7:8
          CFI Resource V8:8, V9:8, V10:8, V11:8, V12:8, V13:8, V14:8, V15:8, SP:8
          CFI Resource PSPH:8, PSPL:8, PSP16:16, XSPH:8, XSPL:8, XSP16:16
          CFI VirtualResource ?RET:24
          CFI Resource ?BRET_EXT:8
          CFI VirtualResource ?RET_HIGH:8, ?RET_LOW:8
          CFI ResourceParts PSP16 PSPH, PSPL
          CFI ResourceParts XSP16 XSPH, XSPL
          CFI ResourceParts ?RET ?BRET_EXT, ?RET_HIGH, ?RET_LOW
          CFI EndNames cfiNames0
        
          CFI Common cfiCommon0 Using cfiNames0
          CFI CodeAlign 1
          CFI DataAlign -1
          CFI ReturnAddress ?RET CODE
          CFI CFA_DOVERLAY Used
          CFI CFA_IOVERLAY Used
          CFI CFA_SP SP+-3
          CFI CFA_PSP16 PSP16+0
          CFI CFA_XSP16 XSP16+0
          CFI `PSW.CY` SameValue
          CFI `B.BR0` SameValue
          CFI `B.BR1` SameValue
          CFI `B.BR2` SameValue
          CFI `B.BR3` SameValue
          CFI `B.BR4` SameValue
          CFI `B.BR5` SameValue
          CFI `B.BR6` SameValue
          CFI `B.BR7` SameValue
          CFI `VB.BR8` SameValue
          CFI `VB.BR9` SameValue
          CFI `VB.BR10` SameValue
          CFI `VB.BR11` SameValue
          CFI `VB.BR12` SameValue
          CFI `VB.BR13` SameValue
          CFI `VB.BR14` SameValue
          CFI `VB.BR15` SameValue
          CFI VB SameValue
          CFI B Undefined
          CFI A Undefined
          CFI PSW SameValue
          CFI DPL0 SameValue
          CFI DPH0 SameValue
          CFI R0 Undefined
          CFI R1 Undefined
          CFI R2 Undefined
          CFI R3 Undefined
          CFI R4 Undefined
          CFI R5 Undefined
          CFI R6 SameValue
          CFI R7 SameValue
          CFI V0 SameValue
          CFI V1 SameValue
          CFI V2 SameValue
          CFI V3 SameValue
          CFI V4 SameValue
          CFI V5 SameValue
          CFI V6 SameValue
          CFI V7 SameValue
          CFI V8 SameValue
          CFI V9 SameValue
          CFI V10 SameValue
          CFI V11 SameValue
          CFI V12 SameValue
          CFI V13 SameValue
          CFI V14 SameValue
          CFI V15 SameValue
          CFI PSPH Undefined
          CFI PSPL Undefined
          CFI XSPH Undefined
          CFI XSPL Undefined
          CFI ?RET Concat
          CFI ?BRET_EXT Frame(CFA_SP, 3)
          CFI ?RET_HIGH Frame(CFA_SP, 2)
          CFI ?RET_LOW Frame(CFA_SP, 1)
          CFI EndCommon cfiCommon0
        
        
          CFI Common cfiCommon1 Using cfiNames0
          CFI CodeAlign 1
          CFI DataAlign -1
          CFI ReturnAddress ?RET CODE
          CFI CFA_DOVERLAY Used
          CFI CFA_IOVERLAY Used
          CFI CFA_SP SP+-2
          CFI CFA_PSP16 PSP16+0
          CFI CFA_XSP16 XSP16+0
          CFI `PSW.CY` SameValue
          CFI `B.BR0` SameValue
          CFI `B.BR1` SameValue
          CFI `B.BR2` SameValue
          CFI `B.BR3` SameValue
          CFI `B.BR4` SameValue
          CFI `B.BR5` SameValue
          CFI `B.BR6` SameValue
          CFI `B.BR7` SameValue
          CFI `VB.BR8` SameValue
          CFI `VB.BR9` SameValue
          CFI `VB.BR10` SameValue
          CFI `VB.BR11` SameValue
          CFI `VB.BR12` SameValue
          CFI `VB.BR13` SameValue
          CFI `VB.BR14` SameValue
          CFI `VB.BR15` SameValue
          CFI VB SameValue
          CFI B SameValue
          CFI A SameValue
          CFI PSW SameValue
          CFI DPL0 SameValue
          CFI DPH0 SameValue
          CFI R0 SameValue
          CFI R1 SameValue
          CFI R2 SameValue
          CFI R3 SameValue
          CFI R4 SameValue
          CFI R5 SameValue
          CFI R6 SameValue
          CFI R7 SameValue
          CFI V0 SameValue
          CFI V1 SameValue
          CFI V2 SameValue
          CFI V3 SameValue
          CFI V4 SameValue
          CFI V5 SameValue
          CFI V6 SameValue
          CFI V7 SameValue
          CFI V8 SameValue
          CFI V9 SameValue
          CFI V10 SameValue
          CFI V11 SameValue
          CFI V12 SameValue
          CFI V13 SameValue
          CFI V14 SameValue
          CFI V15 SameValue
          CFI PSPH Undefined
          CFI PSPL Undefined
          CFI XSPH Undefined
          CFI XSPL Undefined
          CFI ?RET Concat
          CFI ?BRET_EXT SameValue
          CFI ?RET_HIGH Frame(CFA_SP, 2)
          CFI ?RET_LOW Frame(CFA_SP, 1)
          CFI EndCommon cfiCommon1
        
AF_DataRequest      SYMBOL "AF_DataRequest"
`??AF_DataRequest::?relay` SYMBOL "?relay", AF_DataRequest
AF_DataRequestSrcRtg SYMBOL "AF_DataRequestSrcRtg"
`??AF_DataRequestSrcRtg::?relay` SYMBOL "?relay", AF_DataRequestSrcRtg
MT_BuildAndSendZToolResponse SYMBOL "MT_BuildAndSendZToolResponse"
`??MT_BuildAndSendZToolResponse::?relay` SYMBOL "?relay", MT_BuildAndSendZToolResponse
MT_BuildEndpointDesc SYMBOL "MT_BuildEndpointDesc"
`??MT_BuildEndpointDesc::?relay` SYMBOL "?relay", MT_BuildEndpointDesc
afFindEndPointDesc  SYMBOL "afFindEndPointDesc"
`??afFindEndPointDesc::?relay` SYMBOL "?relay", afFindEndPointDesc
afRegister          SYMBOL "afRegister"
`??afRegister::?relay` SYMBOL "?relay", afRegister
osal_mem_alloc      SYMBOL "osal_mem_alloc"
`??osal_mem_alloc::?relay` SYMBOL "?relay", osal_mem_alloc
osal_mem_free       SYMBOL "osal_mem_free"
`??osal_mem_free::?relay` SYMBOL "?relay", osal_mem_free
osal_memcpy         SYMBOL "osal_memcpy"
`??osal_memcpy::?relay` SYMBOL "?relay", osal_memcpy
osal_memset         SYMBOL "osal_memset"
`??osal_memset::?relay` SYMBOL "?relay", osal_memset
osal_set_event      SYMBOL "osal_set_event"
`??osal_set_event::?relay` SYMBOL "?relay", osal_set_event
osal_start_timerEx  SYMBOL "osal_start_timerEx"
`??osal_start_timerEx::?relay` SYMBOL "?relay", osal_start_timerEx
MT_AfCommandProcessing SYMBOL "MT_AfCommandProcessing"
`??MT_AfCommandProcessing::?relay` SYMBOL "?relay", MT_AfCommandProcessing
MT_AfDataConfirm    SYMBOL "MT_AfDataConfirm"
`??MT_AfDataConfirm::?relay` SYMBOL "?relay", MT_AfDataConfirm
MT_AfDataRequest    SYMBOL "MT_AfDataRequest"
`??MT_AfDataRequest::?relay` SYMBOL "?relay", MT_AfDataRequest
MT_AfDataRequestSrcRtg SYMBOL "MT_AfDataRequestSrcRtg"
`??MT_AfDataRequestSrcRtg::?relay` SYMBOL "?relay", MT_AfDataRequestSrcRtg
MT_AfExec           SYMBOL "MT_AfExec"
`??MT_AfExec::?relay` SYMBOL "?relay", MT_AfExec
MT_AfIncomingMsg    SYMBOL "MT_AfIncomingMsg"
`??MT_AfIncomingMsg::?relay` SYMBOL "?relay", MT_AfIncomingMsg
MT_AfRegister       SYMBOL "MT_AfRegister"
`??MT_AfRegister::?relay` SYMBOL "?relay", MT_AfRegister

        EXTERN `??AF_DataRequest::?relay`
        FUNCTION `??AF_DataRequest::?relay`,00H
        EXTERN `??AF_DataRequestSrcRtg::?relay`
        FUNCTION `??AF_DataRequestSrcRtg::?relay`,00H
        EXTERN `??MT_BuildAndSendZToolResponse::?relay`
        FUNCTION `??MT_BuildAndSendZToolResponse::?relay`,00H
        EXTERN `??MT_BuildEndpointDesc::?relay`
        FUNCTION `??MT_BuildEndpointDesc::?relay`,00H
        EXTERN `??afFindEndPointDesc::?relay`
        FUNCTION `??afFindEndPointDesc::?relay`,00H
        EXTERN `??afRegister::?relay`
        FUNCTION `??afRegister::?relay`,00H
        EXTERN `??osal_mem_alloc::?relay`
        FUNCTION `??osal_mem_alloc::?relay`,00H
        EXTERN `??osal_mem_free::?relay`
        FUNCTION `??osal_mem_free::?relay`,00H
        EXTERN `??osal_memcpy::?relay`
        FUNCTION `??osal_memcpy::?relay`,00H
        EXTERN `??osal_memset::?relay`
        FUNCTION `??osal_memset::?relay`,00H
        EXTERN `??osal_set_event::?relay`
        FUNCTION `??osal_set_event::?relay`,00H
        EXTERN `??osal_start_timerEx::?relay`
        FUNCTION `??osal_start_timerEx::?relay`,00H
        EXTERN AF_DataRequest
        FUNCTION AF_DataRequest,0202H
        ARGFRAME ISTACK, 0, STACK
        ARGFRAME PSTACK, 0, STACK
        ARGFRAME XSTACK, 44, STACK
        ARGFRAME IOVERLAY, 0, STATIC
        ARGFRAME DOVERLAY, 0, STATIC
        EXTERN AF_DataRequestSrcRtg
        FUNCTION AF_DataRequestSrcRtg,0202H
        ARGFRAME ISTACK, 0, STACK
        ARGFRAME PSTACK, 0, STACK
        ARGFRAME XSTACK, 47, STACK
        ARGFRAME IOVERLAY, 0, STATIC
        ARGFRAME DOVERLAY, 0, STATIC
        EXTERN MT_BuildAndSendZToolResponse
        FUNCTION MT_BuildAndSendZToolResponse,0202H
        ARGFRAME ISTACK, 2, STACK
        ARGFRAME PSTACK, 0, STACK
        ARGFRAME XSTACK, 35, STACK
        ARGFRAME IOVERLAY, 0, STATIC
        ARGFRAME DOVERLAY, 0, STATIC
        EXTERN MT_BuildEndpointDesc
        FUNCTION MT_BuildEndpointDesc,0202H
        ARGFRAME ISTACK, 0, STACK
        ARGFRAME PSTACK, 0, STACK
        ARGFRAME XSTACK, 15, STACK
        ARGFRAME IOVERLAY, 0, STATIC
        ARGFRAME DOVERLAY, 0, STATIC
        EXTERN MT_TaskID
        EXTERN afFindEndPointDesc
        FUNCTION afFindEndPointDesc,0202H
        ARGFRAME ISTACK, 0, STACK
        ARGFRAME PSTACK, 0, STACK
        ARGFRAME XSTACK, 35, STACK
        ARGFRAME IOVERLAY, 0, STATIC
        ARGFRAME DOVERLAY, 0, STATIC
        EXTERN afRegister
        FUNCTION afRegister,0202H
        ARGFRAME ISTACK, 0, STACK
        ARGFRAME PSTACK, 0, STACK
        ARGFRAME XSTACK, 15, STACK
        ARGFRAME IOVERLAY, 0, STATIC
        ARGFRAME DOVERLAY, 0, STATIC
        EXTERN osal_mem_alloc
        FUNCTION osal_mem_alloc,0202H
        ARGFRAME ISTACK, 0, STACK
        ARGFRAME PSTACK, 0, STACK
        ARGFRAME XSTACK, 35, STACK
        ARGFRAME IOVERLAY, 0, STATIC
        ARGFRAME DOVERLAY, 0, STATIC
        EXTERN osal_mem_free
        FUNCTION osal_mem_free,0202H
        ARGFRAME ISTACK, 0, STACK
        ARGFRAME PSTACK, 0, STACK
        ARGFRAME XSTACK, 35, STACK
        ARGFRAME IOVERLAY, 0, STATIC
        ARGFRAME DOVERLAY, 0, STATIC
        EXTERN osal_memcpy
        FUNCTION osal_memcpy,0202H
        ARGFRAME ISTACK, 0, STACK
        ARGFRAME PSTACK, 0, STACK
        ARGFRAME XSTACK, 38, STACK
        ARGFRAME IOVERLAY, 0, STATIC
        ARGFRAME DOVERLAY, 0, STATIC
        EXTERN osal_memset
        FUNCTION osal_memset,0202H
        ARGFRAME ISTACK, 0, STACK
        ARGFRAME PSTACK, 0, STACK
        ARGFRAME XSTACK, 35, STACK
        ARGFRAME IOVERLAY, 0, STATIC
        ARGFRAME DOVERLAY, 0, STATIC
        EXTERN osal_set_event
        FUNCTION osal_set_event,0202H
        ARGFRAME ISTACK, 0, STACK
        ARGFRAME PSTACK, 0, STACK
        ARGFRAME XSTACK, 35, STACK
        ARGFRAME IOVERLAY, 0, STATIC
        ARGFRAME DOVERLAY, 0, STATIC
        EXTERN osal_start_timerEx
        FUNCTION osal_start_timerEx,0202H
        ARGFRAME ISTACK, 0, STACK
        ARGFRAME PSTACK, 0, STACK
        ARGFRAME XSTACK, 35, STACK
        ARGFRAME IOVERLAY, 0, STATIC
        ARGFRAME DOVERLAY, 0, STATIC

// C:\Users\Re\Documents\ZStack\ZStack-CC2530-2.3.1\Components\mt\MT_AF.c
//    1 /**************************************************************************************************
//    2   Filename:       MT_AF.c
//    3   Revised:        $Date: 2010-08-13 18:14:16 -0700 (Fri, 13 Aug 2010) $
//    4   Revision:       $Revision: 23411 $
//    5 
//    6 
//    7   Description:    MonitorTest functions for the AF layer.
//    8 
//    9 
//   10   Copyright 2007-2010 Texas Instruments Incorporated. All rights reserved.
//   11 
//   12   IMPORTANT: Your use of this Software is limited to those specific rights
//   13   granted under the terms of a software license agreement between the user
//   14   who downloaded the software, his/her employer (which must be your employer)
//   15   and Texas Instruments Incorporated (the "License").  You may not use this
//   16   Software unless you agree to abide by the terms of the License. The License
//   17   limits your use, and you acknowledge, that the Software may not be modified,
//   18   copied or distributed unless embedded on a Texas Instruments microcontroller
//   19   or used solely and exclusively in conjunction with a Texas Instruments radio
//   20   frequency transceiver, which is integrated into your product.  Other than for
//   21   the foregoing purpose, you may not use, reproduce, copy, prepare derivative
//   22   works of, modify, distribute, perform, display or sell this Software and/or
//   23   its documentation for any purpose.
//   24 
//   25   YOU FURTHER ACKNOWLEDGE AND AGREE THAT THE SOFTWARE AND DOCUMENTATION ARE
//   26   PROVIDED “AS IS” WITHOUT WARRANTY OF ANY KIND, EITHER EXPRESS OR IMPLIED,
//   27   INCLUDING WITHOUT LIMITATION, ANY WARRANTY OF MERCHANTABILITY, TITLE,
//   28   NON-INFRINGEMENT AND FITNESS FOR A PARTICULAR PURPOSE. IN NO EVENT SHALL
//   29   TEXAS INSTRUMENTS OR ITS LICENSORS BE LIABLE OR OBLIGATED UNDER CONTRACT,
//   30   NEGLIGENCE, STRICT LIABILITY, CONTRIBUTION, BREACH OF WARRANTY, OR OTHER
//   31   LEGAL EQUITABLE THEORY ANY DIRECT OR INDIRECT DAMAGES OR EXPENSES
//   32   INCLUDING BUT NOT LIMITED TO ANY INCIDENTAL, SPECIAL, INDIRECT, PUNITIVE
//   33   OR CONSEQUENTIAL DAMAGES, LOST PROFITS OR LOST DATA, COST OF PROCUREMENT
//   34   OF SUBSTITUTE GOODS, TECHNOLOGY, SERVICES, OR ANY CLAIMS BY THIRD PARTIES
//   35   (INCLUDING BUT NOT LIMITED TO ANY DEFENSE THEREOF), OR OTHER SIMILAR COSTS.
//   36 
//   37   Should you have any questions regarding your right to use this Software,
//   38   contact Texas Instruments Incorporated at www.TI.com.
//   39 
//   40 **************************************************************************************************/
//   41 
//   42 /***************************************************************************************************
//   43  * INCLUDES
//   44  ***************************************************************************************************/
//   45 #include "ZComDef.h"
//   46 #include "OSAL.h"
//   47 #include "MT.h"
//   48 #include "MT_AF.h"
//   49 #include "MT_ZDO.h"
//   50 #include "nwk.h"
//   51 #include "OnBoard.h"
//   52 #include "MT_UART.h"
//   53 
//   54 #if defined INTER_PAN
//   55 #include "stub_aps.h"
//   56 #endif
//   57 
//   58 /* ------------------------------------------------------------------------------------------------
//   59  *                                          Constants
//   60  * ------------------------------------------------------------------------------------------------
//   61  */
//   62 
//   63 #if !defined MT_AF_EXEC_CNT
//   64 #define MT_AF_EXEC_CNT  15
//   65 #endif
//   66 
//   67 #if !defined MT_AF_EXEC_DLY
//   68 #define MT_AF_EXEC_DLY  1000
//   69 #endif
//   70 
//   71 /* ------------------------------------------------------------------------------------------------
//   72  *                                           Typedefs
//   73  * ------------------------------------------------------------------------------------------------
//   74  */
//   75 
//   76 /*
//   77 typedef struct
//   78 {
//   79   union
//   80   {
//   81     uint16      shortAddr;
//   82     ZLongAddr_t extAddr;
//   83   } addr;
//   84   afAddrMode_t addrMode;
//   85   byte endPoint;
//   86   uint16 panId;  // used for the INTER_PAN feature
//   87 } afAddrType_t;
//   88 
//   89 typedef struct
//   90 {
//   91   byte   TransSeqNumber;
//   92   uint16 DataLength;               // Number of bytes in TransData
//   93   byte  *Data;
//   94 } afMSGCommandFormat_t;
//   95  */
//   96 
//   97 typedef struct
//   98 {
//   99   uint8 *data;
//  100   afAddrType_t dstAddr;
//  101   endPointDesc_t *epDesc;
//  102   uint16 cId;
//  103   uint16 dataLen;
//  104   uint8 transId;
//  105   uint8 txOpts;
//  106   uint8 radius;
//  107   uint8 tick;
//  108 } mtAfDataReq_t;
//  109 
//  110 struct _mtAfInMsgList_t
//  111 {
//  112   struct _mtAfInMsgList_t *next;
//  113   uint8 *data;
//  114   uint32 timestamp;         // Receipt timestamp from MAC.
//  115   uint8 tick;
//  116 };
//  117 typedef struct _mtAfInMsgList_t mtAfInMsgList_t;
//  118 
//  119 /* ------------------------------------------------------------------------------------------------
//  120  *                                        Local Variables
//  121  * ------------------------------------------------------------------------------------------------
//  122  */
//  123 

        RSEG XDATA_Z:XDATA:NOROOT(0)
        DATA16
//  124 mtAfInMsgList_t *pMtAfInMsgList = NULL;
pMtAfInMsgList:
        DS 2
        REQUIRE __INIT_XDATA_Z

        RSEG XDATA_Z:XDATA:NOROOT(0)
        DATA16
//  125 mtAfDataReq_t *pMtAfDataReq = NULL;
pMtAfDataReq:
        DS 2
        REQUIRE __INIT_XDATA_Z
//  126 
//  127 /* ------------------------------------------------------------------------------------------------
//  128  *                                        Global Variables
//  129  * ------------------------------------------------------------------------------------------------
//  130  */
//  131 
//  132 #if defined ( MT_AF_CB_FUNC )
//  133 uint16 _afCallbackSub;
//  134 #endif
//  135 
//  136 /* ------------------------------------------------------------------------------------------------
//  137  *                                        Local Functions
//  138  * ------------------------------------------------------------------------------------------------
//  139  */
//  140 
//  141 void MT_AfRegister(uint8 *pBuf);
//  142 void MT_AfDataRequest(uint8 *pBuf);
//  143 
//  144 #if defined ( ZIGBEE_SOURCE_ROUTING )
//  145 void MT_AfDataRequestSrcRtg(uint8 *pBuf);
//  146 #endif
//  147 
//  148 #if defined INTER_PAN
//  149 static void MT_AfInterPanCtl(uint8 *pBuf);
//  150 #endif
//  151 
//  152 static void MT_AfDataRetrieve(uint8 *pBuf);
//  153 static void MT_AfDataStore(uint8 *pBuf);
//  154 
//  155 /**************************************************************************************************
//  156  * @fn          MT_AfExec
//  157  *
//  158  * @brief       This function is invoked by an MT timer event.
//  159  *
//  160  * input parameters
//  161  *
//  162  * None.
//  163  *
//  164  * output parameters
//  165  *
//  166  * None.
//  167  *
//  168  * @return      None.
//  169  **************************************************************************************************
//  170  */

        RSEG BANKED_CODE:HUGECODE:NOROOT(0)
//  171 void MT_AfExec(void)
MT_AfExec:
          CFI Block cfiBlock0 Using cfiCommon0
          CFI Function MT_AfExec
        CODE
//  172 {
        FUNCALL MT_AfExec, osal_mem_free
        LOCFRAME ISTACK, 0, STACK
        LOCFRAME PSTACK, 0, STACK
        LOCFRAME XSTACK, 9, STACK
        LOCFRAME IOVERLAY, 0, STATIC
        LOCFRAME DOVERLAY, 0, STATIC
        ARGFRAME ISTACK, 0, STACK
        ARGFRAME PSTACK, 0, STACK
        ARGFRAME XSTACK, 9, STACK
        ARGFRAME IOVERLAY, 0, STATIC
        ARGFRAME DOVERLAY, 0, STATIC
        FUNCALL MT_AfExec, osal_mem_free
        LOCFRAME ISTACK, 0, STACK
        LOCFRAME PSTACK, 0, STACK
        LOCFRAME XSTACK, 9, STACK
        LOCFRAME IOVERLAY, 0, STATIC
        LOCFRAME DOVERLAY, 0, STATIC
        ARGFRAME ISTACK, 0, STACK
        ARGFRAME PSTACK, 0, STACK
        ARGFRAME XSTACK, 9, STACK
        ARGFRAME IOVERLAY, 0, STATIC
        ARGFRAME DOVERLAY, 0, STATIC
        FUNCALL MT_AfExec, osal_mem_free
        LOCFRAME ISTACK, 0, STACK
        LOCFRAME PSTACK, 0, STACK
        LOCFRAME XSTACK, 9, STACK
        LOCFRAME IOVERLAY, 0, STATIC
        LOCFRAME DOVERLAY, 0, STATIC
        ARGFRAME ISTACK, 0, STACK
        ARGFRAME PSTACK, 0, STACK
        ARGFRAME XSTACK, 9, STACK
        ARGFRAME IOVERLAY, 0, STATIC
        ARGFRAME DOVERLAY, 0, STATIC
        FUNCALL MT_AfExec, osal_start_timerEx
        LOCFRAME ISTACK, 0, STACK
        LOCFRAME PSTACK, 0, STACK
        LOCFRAME XSTACK, 9, STACK
        LOCFRAME IOVERLAY, 0, STATIC
        LOCFRAME DOVERLAY, 0, STATIC
        ARGFRAME ISTACK, 0, STACK
        ARGFRAME PSTACK, 0, STACK
        ARGFRAME XSTACK, 9, STACK
        ARGFRAME IOVERLAY, 0, STATIC
        ARGFRAME DOVERLAY, 0, STATIC
        FUNCALL MT_AfExec, osal_set_event
        LOCFRAME ISTACK, 0, STACK
        LOCFRAME PSTACK, 0, STACK
        LOCFRAME XSTACK, 9, STACK
        LOCFRAME IOVERLAY, 0, STATIC
        LOCFRAME DOVERLAY, 0, STATIC
        ARGFRAME ISTACK, 0, STACK
        ARGFRAME PSTACK, 0, STACK
        ARGFRAME XSTACK, 9, STACK
        ARGFRAME IOVERLAY, 0, STATIC
        ARGFRAME DOVERLAY, 0, STATIC
        MOV       A,#-0x9
        LCALL     ?BANKED_ENTER_XDATA
          CFI R6 load(1, XDATA, add(CFA_XSP16, literal(-9)))
          CFI VB load(1, XDATA, add(CFA_XSP16, literal(-8)))
          CFI V0 load(1, XDATA, add(CFA_XSP16, literal(-7)))
          CFI R7 load(1, XDATA, add(CFA_XSP16, literal(-6)))
          CFI ?RET_LOW load(1, XDATA, add(CFA_XSP16, literal(-5)))
          CFI ?RET_HIGH load(1, XDATA, add(CFA_XSP16, literal(-4)))
          CFI ?BRET_EXT load(1, XDATA, add(CFA_XSP16, literal(-3)))
          CFI DPL0 load(1, XDATA, add(CFA_XSP16, literal(-2)))
          CFI DPH0 load(1, XDATA, add(CFA_XSP16, literal(-1)))
          CFI CFA_SP SP+0
          CFI CFA_XSP16 add(XSP16, 9)
        ; Saved register size: 9
        ; Auto size: 0
//  173   mtAfInMsgList_t *pPrev, *pItem = pMtAfInMsgList;
??MT_AfExec_0:
        MOV       DPTR,#pMtAfInMsgList
        SJMP      ??MT_AfExec_1
//  174 
//  175   while (pItem != NULL)
//  176   {
//  177     if (--(pItem->tick) == 0)
//  178     {
//  179       if (pMtAfInMsgList == pItem)
//  180       {
//  181         pMtAfInMsgList = pItem->next;
//  182         (void)osal_mem_free(pItem);
//  183         pItem = pMtAfInMsgList;
//  184       }
//  185       else
//  186       {
//  187         pPrev->next = pItem->next;
//  188         (void)osal_mem_free(pItem);
//  189         pItem = pPrev->next;
//  190       }
//  191     }
//  192     else
//  193     {
//  194       pPrev = pItem;
??MT_AfExec_2:
        MOV       A,R2
        MOV       R6,A
        MOV       A,R3
        MOV       R7,A
//  195       pItem = pItem->next;
        MOV       DPL,R2
        MOV       DPH,R3
//  196     }
??MT_AfExec_1:
        LCALL     ?Subroutine31 & 0xFFFF
??CrossCallReturnLabel_45:
        MOV       A,R2
        ORL       A,R3
        JZ        ??MT_AfExec_3
        MOV       A,R2
        ADD       A,#0x8
        MOV       DPL,A
        CLR       A
        ADDC      A,R3
        MOV       DPH,A
        MOVX      A,@DPTR
        DEC       A
        MOVX      @DPTR,A
        JNZ       ??MT_AfExec_2
        LCALL     ?Subroutine30 & 0xFFFF
??CrossCallReturnLabel_89:
        MOV       A,R2
        XRL       A,R0
        JNZ       ??MT_AfExec_4
        MOV       A,R3
        XRL       A,R1
??MT_AfExec_4:
        MOV       DPL,R2
        MOV       DPH,R3
        JNZ       ??MT_AfExec_5
        LCALL     ?Subroutine18 & 0xFFFF
??CrossCallReturnLabel_23:
        LCALL     ?Subroutine27 & 0xFFFF
??CrossCallReturnLabel_41:
        SJMP      ??MT_AfExec_0
??MT_AfExec_5:
        LCALL     ??Subroutine42_0 & 0xFFFF
??CrossCallReturnLabel_87:
        MOV       DPL,R6
        MOV       DPH,R7
        LCALL     ?Subroutine27 & 0xFFFF
??CrossCallReturnLabel_42:
        MOV       DPL,R6
        MOV       DPH,R7
        SJMP      ??MT_AfExec_1
//  197   }
//  198 
//  199   if (pMtAfDataReq != NULL)
??MT_AfExec_3:
        LCALL     ?Subroutine4 & 0xFFFF
??CrossCallReturnLabel_61:
        JZ        ??MT_AfExec_6
//  200   {
//  201     if (--(pMtAfDataReq->tick) == 0)
        MOV       A,R0
        ADD       A,#0x17
        MOV       DPL,A
        CLR       A
        ADDC      A,R1
        MOV       DPH,A
        MOVX      A,@DPTR
        DEC       A
        LCALL     ?Subroutine6 & 0xFFFF
??CrossCallReturnLabel_5:
        MOVX      A,@DPTR
        JNZ       ??MT_AfExec_6
//  202     {
//  203       (void)osal_mem_free(pMtAfDataReq);
        ; Setup parameters for call to function osal_mem_free
        LCALL     ?Subroutine5 & 0xFFFF
//  204       pMtAfDataReq = NULL;
//  205     }
//  206   }
??CrossCallReturnLabel_2:
        MOVX      @DPTR,A
//  207 
//  208   if ((pMtAfInMsgList != NULL) || (pMtAfDataReq != NULL))
??MT_AfExec_6:
        MOV       DPTR,#pMtAfInMsgList
        LCALL     ??Subroutine36_0 & 0xFFFF
??CrossCallReturnLabel_60:
        JNZ       ??MT_AfExec_7
        LCALL     ?Subroutine4 & 0xFFFF
??CrossCallReturnLabel_62:
        JZ        ??CrossCallReturnLabel_25
//  209   {
//  210     if (ZSuccess != osal_start_timerEx(MT_TaskID, MT_AF_EXEC_EVT, MT_AF_EXEC_DLY))
??MT_AfExec_7:
        ; Setup parameters for call to function osal_start_timerEx
        LCALL     ??Subroutine34_0 & 0xFFFF
??CrossCallReturnLabel_53:
        JZ        ??CrossCallReturnLabel_25
//  211     {
//  212       osal_set_event(MT_TaskID, MT_AF_EXEC_EVT);
        ; Setup parameters for call to function osal_set_event
        LCALL     ?Subroutine19 & 0xFFFF
//  213     }
//  214   }
//  215 }
??CrossCallReturnLabel_25:
          CFI EndBlock cfiBlock0
        REQUIRE ?Subroutine0
        ; // Fall through to label ?Subroutine0

        RSEG BANKED_CODE:HUGECODE:NOROOT(0)
?Subroutine0:
          CFI Block cfiBlock1 Using cfiCommon0
          CFI NoFunction
          CFI CFA_SP SP+0
          CFI CFA_XSP16 add(XSP16, 9)
          CFI VB load(1, XDATA, add(CFA_XSP16, literal(-8)))
          CFI DPL0 load(1, XDATA, add(CFA_XSP16, literal(-2)))
          CFI DPH0 load(1, XDATA, add(CFA_XSP16, literal(-1)))
          CFI R6 load(1, XDATA, add(CFA_XSP16, literal(-9)))
          CFI R7 load(1, XDATA, add(CFA_XSP16, literal(-6)))
          CFI V0 load(1, XDATA, add(CFA_XSP16, literal(-7)))
          CFI ?BRET_EXT load(1, XDATA, add(CFA_XSP16, literal(-3)))
          CFI ?RET_HIGH load(1, XDATA, add(CFA_XSP16, literal(-4)))
          CFI ?RET_LOW load(1, XDATA, add(CFA_XSP16, literal(-5)))
        MOV       R7,#0x1
        LJMP      ?BANKED_LEAVE_XDATA
          CFI EndBlock cfiBlock1

        RSEG BANKED_CODE:HUGECODE:NOROOT(0)
?Subroutine27:
          CFI Block cfiCond2 Using cfiCommon0
          CFI Function MT_AfExec
          CFI Conditional ??CrossCallReturnLabel_41
          CFI R6 load(1, XDATA, add(CFA_XSP16, literal(-9)))
          CFI VB load(1, XDATA, add(CFA_XSP16, literal(-8)))
          CFI V0 load(1, XDATA, add(CFA_XSP16, literal(-7)))
          CFI R7 load(1, XDATA, add(CFA_XSP16, literal(-6)))
          CFI ?RET_LOW load(1, XDATA, add(CFA_XSP16, literal(-5)))
          CFI ?RET_HIGH load(1, XDATA, add(CFA_XSP16, literal(-4)))
          CFI ?BRET_EXT load(1, XDATA, add(CFA_XSP16, literal(-3)))
          CFI DPL0 load(1, XDATA, add(CFA_XSP16, literal(-2)))
          CFI DPH0 load(1, XDATA, add(CFA_XSP16, literal(-1)))
          CFI CFA_SP SP+-2
          CFI CFA_XSP16 add(XSP16, 9)
          CFI Block cfiCond3 Using cfiCommon0
          CFI (cfiCond3) Function MT_AfExec
          CFI (cfiCond3) Conditional ??CrossCallReturnLabel_42
          CFI (cfiCond3) R6 load(1, XDATA, add(CFA_XSP16, literal(-9)))
          CFI (cfiCond3) VB load(1, XDATA, add(CFA_XSP16, literal(-8)))
          CFI (cfiCond3) V0 load(1, XDATA, add(CFA_XSP16, literal(-7)))
          CFI (cfiCond3) R7 load(1, XDATA, add(CFA_XSP16, literal(-6)))
          CFI (cfiCond3) ?RET_LOW load(1, XDATA, add(CFA_XSP16, literal(-5)))
          CFI (cfiCond3) ?RET_HIGH load(1, XDATA, add(CFA_XSP16, literal(-4)))
          CFI (cfiCond3) ?BRET_EXT load(1, XDATA, add(CFA_XSP16, literal(-3)))
          CFI (cfiCond3) DPL0 load(1, XDATA, add(CFA_XSP16, literal(-2)))
          CFI (cfiCond3) DPH0 load(1, XDATA, add(CFA_XSP16, literal(-1)))
          CFI (cfiCond3) CFA_SP SP+-2
          CFI (cfiCond3) CFA_XSP16 add(XSP16, 9)
          CFI Block cfiPicker4 Using cfiCommon1
          CFI (cfiPicker4) NoFunction
          CFI (cfiPicker4) Picker
        LCALL     ?Subroutine33 & 0xFFFF
??CrossCallReturnLabel_74:
        ; Setup parameters for call to function osal_mem_free
        ; Setup parameters for call to function osal_mem_free
        LCALL     `??osal_mem_free::?relay`; Banked call to: osal_mem_free
        RET
          CFI EndBlock cfiCond2
          CFI EndBlock cfiCond3
          CFI EndBlock cfiPicker4
//  216 
//  217 /***************************************************************************************************
//  218  * @fn      MT_AfCommandProcessing
//  219  *
//  220  * @brief   Process all the AF commands that are issued by test tool
//  221  *
//  222  * @param   pBuf - pointer to the received buffer
//  223  *
//  224  * @return  status
//  225  ***************************************************************************************************/

        RSEG BANKED_CODE:HUGECODE:NOROOT(0)
//  226 uint8 MT_AfCommandProcessing(uint8 *pBuf)
MT_AfCommandProcessing:
          CFI Block cfiBlock5 Using cfiCommon0
          CFI Function MT_AfCommandProcessing
        CODE
//  227 {
        FUNCALL MT_AfCommandProcessing, MT_AfRegister
        LOCFRAME ISTACK, 0, STACK
        LOCFRAME PSTACK, 0, STACK
        LOCFRAME XSTACK, 9, STACK
        LOCFRAME IOVERLAY, 0, STATIC
        LOCFRAME DOVERLAY, 0, STATIC
        ARGFRAME ISTACK, 0, STACK
        ARGFRAME PSTACK, 0, STACK
        ARGFRAME XSTACK, 9, STACK
        ARGFRAME IOVERLAY, 0, STATIC
        ARGFRAME DOVERLAY, 0, STATIC
        FUNCALL MT_AfCommandProcessing, MT_AfDataRequest
        LOCFRAME ISTACK, 0, STACK
        LOCFRAME PSTACK, 0, STACK
        LOCFRAME XSTACK, 9, STACK
        LOCFRAME IOVERLAY, 0, STATIC
        LOCFRAME DOVERLAY, 0, STATIC
        ARGFRAME ISTACK, 0, STACK
        ARGFRAME PSTACK, 0, STACK
        ARGFRAME XSTACK, 9, STACK
        ARGFRAME IOVERLAY, 0, STATIC
        ARGFRAME DOVERLAY, 0, STATIC
        FUNCALL MT_AfCommandProcessing, MT_AfDataRetrieve
        LOCFRAME ISTACK, 0, STACK
        LOCFRAME PSTACK, 0, STACK
        LOCFRAME XSTACK, 9, STACK
        LOCFRAME IOVERLAY, 0, STATIC
        LOCFRAME DOVERLAY, 0, STATIC
        ARGFRAME ISTACK, 0, STACK
        ARGFRAME PSTACK, 0, STACK
        ARGFRAME XSTACK, 9, STACK
        ARGFRAME IOVERLAY, 0, STATIC
        ARGFRAME DOVERLAY, 0, STATIC
        FUNCALL MT_AfCommandProcessing, MT_AfDataStore
        LOCFRAME ISTACK, 0, STACK
        LOCFRAME PSTACK, 0, STACK
        LOCFRAME XSTACK, 9, STACK
        LOCFRAME IOVERLAY, 0, STATIC
        LOCFRAME DOVERLAY, 0, STATIC
        ARGFRAME ISTACK, 0, STACK
        ARGFRAME PSTACK, 0, STACK
        ARGFRAME XSTACK, 9, STACK
        ARGFRAME IOVERLAY, 0, STATIC
        ARGFRAME DOVERLAY, 0, STATIC
        FUNCALL MT_AfCommandProcessing, MT_AfDataRequestSrcRtg
        LOCFRAME ISTACK, 0, STACK
        LOCFRAME PSTACK, 0, STACK
        LOCFRAME XSTACK, 9, STACK
        LOCFRAME IOVERLAY, 0, STATIC
        LOCFRAME DOVERLAY, 0, STATIC
        ARGFRAME ISTACK, 0, STACK
        ARGFRAME PSTACK, 0, STACK
        ARGFRAME XSTACK, 9, STACK
        ARGFRAME IOVERLAY, 0, STATIC
        ARGFRAME DOVERLAY, 0, STATIC
        MOV       A,#-0x9
        LCALL     ?BANKED_ENTER_XDATA
          CFI DPH0 load(1, XDATA, add(CFA_XSP16, literal(-1)))
          CFI DPL0 load(1, XDATA, add(CFA_XSP16, literal(-2)))
          CFI ?BRET_EXT load(1, XDATA, add(CFA_XSP16, literal(-3)))
          CFI ?RET_HIGH load(1, XDATA, add(CFA_XSP16, literal(-4)))
          CFI ?RET_LOW load(1, XDATA, add(CFA_XSP16, literal(-5)))
          CFI R7 load(1, XDATA, add(CFA_XSP16, literal(-6)))
          CFI V0 load(1, XDATA, add(CFA_XSP16, literal(-7)))
          CFI VB load(1, XDATA, add(CFA_XSP16, literal(-8)))
          CFI R6 load(1, XDATA, add(CFA_XSP16, literal(-9)))
          CFI CFA_SP SP+0
          CFI CFA_XSP16 add(XSP16, 9)
        ; Saved register size: 9
        ; Auto size: 0
//  228   uint8 status = MT_RPC_SUCCESS;
        MOV       R6,#0x0
//  229 
//  230   switch (pBuf[MT_RPC_POS_CMD1])
        MOV       DPL,R2
        MOV       DPH,R3
        INC       DPTR
        INC       DPTR
        MOVX      A,@DPTR
        JZ        ??MT_AfCommandProcessing_0
        DEC       A
        JZ        ??MT_AfCommandProcessing_1
        DEC       A
        JZ        ??MT_AfCommandProcessing_1
        DEC       A
        JZ        ??MT_AfCommandProcessing_2
        ADD       A,#-0xe
        JZ        ??MT_AfCommandProcessing_3
        DEC       A
        JZ        ??MT_AfCommandProcessing_4
        SJMP      ??MT_AfCommandProcessing_5
//  231   {
//  232     case MT_AF_REGISTER:
//  233       MT_AfRegister(pBuf);
??MT_AfCommandProcessing_0:
        ; Setup parameters for call to function MT_AfRegister
        LCALL     `??MT_AfRegister::?relay`; Banked call to: MT_AfRegister
//  234       break;
        SJMP      ??MT_AfCommandProcessing_6
//  235 
//  236     case MT_AF_DATA_REQUEST:
//  237     case MT_AF_DATA_REQUEST_EXT:
//  238       MT_AfDataRequest(pBuf);
??MT_AfCommandProcessing_1:
        ; Setup parameters for call to function MT_AfDataRequest
        LCALL     `??MT_AfDataRequest::?relay`; Banked call to: MT_AfDataRequest
//  239       break;
        SJMP      ??MT_AfCommandProcessing_6
//  240 
//  241     case MT_AF_DATA_RETRIEVE:
//  242       MT_AfDataRetrieve(pBuf);
??MT_AfCommandProcessing_4:
        ; Setup parameters for call to function MT_AfDataRetrieve
        LCALL     `??MT_AfDataRetrieve::?relay`; Banked call to: MT_AfDataRetrieve
//  243       break;
        SJMP      ??MT_AfCommandProcessing_6
//  244       
//  245     case MT_AF_DATA_STORE:
//  246       MT_AfDataStore(pBuf);
??MT_AfCommandProcessing_3:
        ; Setup parameters for call to function MT_AfDataStore
        LCALL     `??MT_AfDataStore::?relay`; Banked call to: MT_AfDataStore
//  247       break;
        SJMP      ??MT_AfCommandProcessing_6
//  248       
//  249 #if defined ( ZIGBEE_SOURCE_ROUTING )
//  250     case MT_AF_DATA_REQUEST_SRCRTG:
//  251       MT_AfDataRequestSrcRtg(pBuf);
??MT_AfCommandProcessing_2:
        ; Setup parameters for call to function MT_AfDataRequestSrcRtg
        LCALL     `??MT_AfDataRequestSrcRtg::?relay`; Banked call to: MT_AfDataRequestSrcRtg
//  252       break;
        SJMP      ??MT_AfCommandProcessing_6
//  253 #endif
//  254       
//  255 #if defined INTER_PAN
//  256     case MT_AF_INTER_PAN_CTL:
//  257       MT_AfInterPanCtl(pBuf);
//  258       break; 
//  259 #endif
//  260       
//  261     default:
//  262       status = MT_RPC_ERR_COMMAND_ID;
??MT_AfCommandProcessing_5:
        MOV       R6,#0x2
//  263       break;
//  264   }
//  265 
//  266   return status;
??MT_AfCommandProcessing_6:
        MOV       A,R6
        MOV       R1,A
        SJMP      ?Subroutine0
//  267 }
          CFI EndBlock cfiBlock5
//  268 
//  269 /***************************************************************************************************
//  270  * @fn      MT_AfRegister
//  271  *
//  272  * @brief   Process AF Register command
//  273  *
//  274  * @param   pBuf - pointer to the received buffer
//  275  *
//  276  * @return  none
//  277  ***************************************************************************************************/

        RSEG BANKED_CODE:HUGECODE:NOROOT(0)
//  278 void MT_AfRegister(uint8 *pBuf)
MT_AfRegister:
          CFI Block cfiBlock6 Using cfiCommon0
          CFI Function MT_AfRegister
        CODE
//  279 {
        FUNCALL MT_AfRegister, osal_mem_alloc
        LOCFRAME ISTACK, 0, STACK
        LOCFRAME PSTACK, 0, STACK
        LOCFRAME XSTACK, 15, STACK
        LOCFRAME IOVERLAY, 0, STATIC
        LOCFRAME DOVERLAY, 0, STATIC
        ARGFRAME ISTACK, 0, STACK
        ARGFRAME PSTACK, 0, STACK
        ARGFRAME XSTACK, 15, STACK
        ARGFRAME IOVERLAY, 0, STATIC
        ARGFRAME DOVERLAY, 0, STATIC
        FUNCALL MT_AfRegister, MT_BuildEndpointDesc
        LOCFRAME ISTACK, 0, STACK
        LOCFRAME PSTACK, 0, STACK
        LOCFRAME XSTACK, 15, STACK
        LOCFRAME IOVERLAY, 0, STATIC
        LOCFRAME DOVERLAY, 0, STATIC
        ARGFRAME ISTACK, 0, STACK
        ARGFRAME PSTACK, 0, STACK
        ARGFRAME XSTACK, 15, STACK
        ARGFRAME IOVERLAY, 0, STATIC
        ARGFRAME DOVERLAY, 0, STATIC
        FUNCALL MT_AfRegister, afRegister
        LOCFRAME ISTACK, 0, STACK
        LOCFRAME PSTACK, 0, STACK
        LOCFRAME XSTACK, 15, STACK
        LOCFRAME IOVERLAY, 0, STATIC
        LOCFRAME DOVERLAY, 0, STATIC
        ARGFRAME ISTACK, 0, STACK
        ARGFRAME PSTACK, 0, STACK
        ARGFRAME XSTACK, 15, STACK
        ARGFRAME IOVERLAY, 0, STATIC
        ARGFRAME DOVERLAY, 0, STATIC
        FUNCALL MT_AfRegister, osal_mem_free
        LOCFRAME ISTACK, 0, STACK
        LOCFRAME PSTACK, 0, STACK
        LOCFRAME XSTACK, 15, STACK
        LOCFRAME IOVERLAY, 0, STATIC
        LOCFRAME DOVERLAY, 0, STATIC
        ARGFRAME ISTACK, 0, STACK
        ARGFRAME PSTACK, 0, STACK
        ARGFRAME XSTACK, 15, STACK
        ARGFRAME IOVERLAY, 0, STATIC
        ARGFRAME DOVERLAY, 0, STATIC
        FUNCALL MT_AfRegister, MT_BuildAndSendZToolResponse
        LOCFRAME ISTACK, 0, STACK
        LOCFRAME PSTACK, 0, STACK
        LOCFRAME XSTACK, 15, STACK
        LOCFRAME IOVERLAY, 0, STATIC
        LOCFRAME DOVERLAY, 0, STATIC
        ARGFRAME ISTACK, 0, STACK
        ARGFRAME PSTACK, 0, STACK
        ARGFRAME XSTACK, 15, STACK
        ARGFRAME IOVERLAY, 0, STATIC
        ARGFRAME DOVERLAY, 0, STATIC
        REQUIRE ?V0
        REQUIRE ?V1
        REQUIRE ?V2
        REQUIRE ?V4
        REQUIRE ?V5
        MOV       A,#-0xe
        LCALL     ?BANKED_ENTER_XDATA
          CFI DPH0 load(1, XDATA, add(CFA_XSP16, literal(-1)))
          CFI DPL0 load(1, XDATA, add(CFA_XSP16, literal(-2)))
          CFI ?BRET_EXT load(1, XDATA, add(CFA_XSP16, literal(-3)))
          CFI ?RET_HIGH load(1, XDATA, add(CFA_XSP16, literal(-4)))
          CFI ?RET_LOW load(1, XDATA, add(CFA_XSP16, literal(-5)))
          CFI R7 load(1, XDATA, add(CFA_XSP16, literal(-6)))
          CFI V5 load(1, XDATA, add(CFA_XSP16, literal(-7)))
          CFI V4 load(1, XDATA, add(CFA_XSP16, literal(-8)))
          CFI V3 load(1, XDATA, add(CFA_XSP16, literal(-9)))
          CFI V2 load(1, XDATA, add(CFA_XSP16, literal(-10)))
          CFI V1 load(1, XDATA, add(CFA_XSP16, literal(-11)))
          CFI V0 load(1, XDATA, add(CFA_XSP16, literal(-12)))
          CFI VB load(1, XDATA, add(CFA_XSP16, literal(-13)))
          CFI R6 load(1, XDATA, add(CFA_XSP16, literal(-14)))
          CFI CFA_SP SP+0
          CFI CFA_XSP16 add(XSP16, 14)
        ; Saved register size: 14
        ; Auto size: 1
        MOV       A,#-0x1
        LCALL     ?ALLOC_XSTACK8
          CFI CFA_XSP16 add(XSP16, 15)
        MOV       ?V0,R2
        MOV       ?V1,R3
//  280   uint8 cmdId;
//  281   uint8 retValue = ZMemError;
        MOV       DPL,?XSP + 0
        MOV       DPH,?XSP + 1
        MOV       A,#0x10
        LCALL     ?Subroutine23 & 0xFFFF
//  282   endPointDesc_t *epDesc;
//  283 
//  284   /* parse header */
//  285   cmdId = pBuf[MT_RPC_POS_CMD1];
??CrossCallReturnLabel_32:
        MOV       ?V2,A
//  286   pBuf += MT_RPC_FRAME_HDR_SZ;
//  287 
//  288   epDesc = (endPointDesc_t *)osal_mem_alloc(sizeof(endPointDesc_t));
        ; Setup parameters for call to function osal_mem_alloc
        MOV       R2,#0x6
        MOV       R3,#0x0
        LCALL     `??osal_mem_alloc::?relay`; Banked call to: osal_mem_alloc
        MOV       ?V4,R2
        MOV       ?V5,R3
        MOV       R6,?V4
        MOV       R7,?V5
//  289   if ( epDesc )
        MOV       A,R2
        ORL       A,R7
        JZ        ??MT_AfRegister_0
//  290   {
//  291     epDesc->task_id = &MT_TaskID;
        MOV       DPL,R2
        MOV       DPH,R3
        INC       DPTR
        MOV       A,#MT_TaskID & 0xff
        MOVX      @DPTR,A
        INC       DPTR
        MOV       A,#(MT_TaskID >> 8) & 0xff
        MOVX      @DPTR,A
//  292     retValue = MT_BuildEndpointDesc( pBuf, epDesc );
        ; Setup parameters for call to function MT_BuildEndpointDesc
        MOV       A,R2
        MOV       R4,A
        MOV       A,R3
        MOV       R5,A
        MOV       A,?V0
        ADD       A,#0x3
        MOV       R2,A
        CLR       A
        ADDC      A,?V1
        MOV       R3,A
        LCALL     `??MT_BuildEndpointDesc::?relay`; Banked call to: MT_BuildEndpointDesc
        MOV       A,R1
        MOV       DPL,?XSP + 0
        MOV       DPH,?XSP + 1
        MOVX      @DPTR,A
//  293     if ( retValue == ZSuccess )
        JNZ       ??MT_AfRegister_1
//  294     {
//  295       retValue = afRegister( epDesc );
        ; Setup parameters for call to function afRegister
        MOV       A,R6
        MOV       R2,A
        MOV       A,R7
        MOV       R3,A
        LCALL     `??afRegister::?relay`; Banked call to: afRegister
        MOV       A,R1
        MOV       DPL,?XSP + 0
        MOV       DPH,?XSP + 1
        MOVX      @DPTR,A
//  296     }
//  297 
//  298     if ( retValue != ZSuccess )
??MT_AfRegister_1:
        MOVX      A,@DPTR
        JZ        ??MT_AfRegister_0
//  299     {
//  300       osal_mem_free( epDesc );
        ; Setup parameters for call to function osal_mem_free
        MOV       A,R6
        MOV       R2,A
        MOV       A,R7
        MOV       R3,A
        LCALL     `??osal_mem_free::?relay`; Banked call to: osal_mem_free
//  301     }
//  302   }
//  303 
//  304   /* Build and send back the response */
//  305   MT_BuildAndSendZToolResponse(((uint8)MT_RPC_CMD_SRSP | (uint8)MT_RPC_SYS_AF), cmdId, 1, &retValue);
??MT_AfRegister_0:
        ; Setup parameters for call to function MT_BuildAndSendZToolResponse
        MOV       R4,?XSP + 0
        MOV       R5,?XSP + 1
        MOV       R3,#0x1
        MOV       R2,?V2
          CFI EndBlock cfiBlock6
        REQUIRE ?Subroutine1
        ; // Fall through to label ?Subroutine1
//  306 }

        RSEG BANKED_CODE:HUGECODE:NOROOT(0)
?Subroutine1:
          CFI Block cfiBlock7 Using cfiCommon0
          CFI NoFunction
          CFI CFA_SP SP+0
          CFI CFA_XSP16 add(XSP16, 15)
          CFI VB load(1, XDATA, add(CFA_XSP16, literal(-13)))
          CFI DPL0 load(1, XDATA, add(CFA_XSP16, literal(-2)))
          CFI DPH0 load(1, XDATA, add(CFA_XSP16, literal(-1)))
          CFI R6 load(1, XDATA, add(CFA_XSP16, literal(-14)))
          CFI R7 load(1, XDATA, add(CFA_XSP16, literal(-6)))
          CFI V0 load(1, XDATA, add(CFA_XSP16, literal(-12)))
          CFI V1 load(1, XDATA, add(CFA_XSP16, literal(-11)))
          CFI V2 load(1, XDATA, add(CFA_XSP16, literal(-10)))
          CFI V3 load(1, XDATA, add(CFA_XSP16, literal(-9)))
          CFI V4 load(1, XDATA, add(CFA_XSP16, literal(-8)))
          CFI V5 load(1, XDATA, add(CFA_XSP16, literal(-7)))
          CFI ?BRET_EXT load(1, XDATA, add(CFA_XSP16, literal(-3)))
          CFI ?RET_HIGH load(1, XDATA, add(CFA_XSP16, literal(-4)))
          CFI ?RET_LOW load(1, XDATA, add(CFA_XSP16, literal(-5)))
        MOV       R1,#0x64
        LCALL     `??MT_BuildAndSendZToolResponse::?relay`; Banked call to: MT_BuildAndSendZToolResponse
        MOV       A,#0x1
        LCALL     ?DEALLOC_XSTACK8
          CFI CFA_XSP16 add(XSP16, 14)
        MOV       R7,#0x6
        LJMP      ?BANKED_LEAVE_XDATA
          CFI EndBlock cfiBlock7
//  307 
//  308 /***************************************************************************************************
//  309  * @fn      MT_AfDataRequest
//  310  *
//  311  * @brief   Process AF Register command
//  312  *
//  313  * @param   pBuf - pointer to the received buffer
//  314  *
//  315  * @return  none
//  316  ***************************************************************************************************/

        RSEG BANKED_CODE:HUGECODE:NOROOT(0)
//  317 void MT_AfDataRequest(uint8 *pBuf)
MT_AfDataRequest:
          CFI Block cfiBlock8 Using cfiCommon0
          CFI Function MT_AfDataRequest
        CODE
//  318 {
        FUNCALL MT_AfDataRequest, osal_memcpy
        LOCFRAME ISTACK, 0, STACK
        LOCFRAME PSTACK, 0, STACK
        LOCFRAME XSTACK, 38, STACK
        LOCFRAME IOVERLAY, 0, STATIC
        LOCFRAME DOVERLAY, 0, STATIC
        ARGFRAME ISTACK, 0, STACK
        ARGFRAME PSTACK, 0, STACK
        ARGFRAME XSTACK, 38, STACK
        ARGFRAME IOVERLAY, 0, STATIC
        ARGFRAME DOVERLAY, 0, STATIC
        FUNCALL MT_AfDataRequest, afFindEndPointDesc
        LOCFRAME ISTACK, 0, STACK
        LOCFRAME PSTACK, 0, STACK
        LOCFRAME XSTACK, 35, STACK
        LOCFRAME IOVERLAY, 0, STATIC
        LOCFRAME DOVERLAY, 0, STATIC
        ARGFRAME ISTACK, 0, STACK
        ARGFRAME PSTACK, 0, STACK
        ARGFRAME XSTACK, 35, STACK
        ARGFRAME IOVERLAY, 0, STATIC
        ARGFRAME DOVERLAY, 0, STATIC
        FUNCALL MT_AfDataRequest, osal_mem_alloc
        LOCFRAME ISTACK, 0, STACK
        LOCFRAME PSTACK, 0, STACK
        LOCFRAME XSTACK, 35, STACK
        LOCFRAME IOVERLAY, 0, STATIC
        LOCFRAME DOVERLAY, 0, STATIC
        ARGFRAME ISTACK, 0, STACK
        ARGFRAME PSTACK, 0, STACK
        ARGFRAME XSTACK, 35, STACK
        ARGFRAME IOVERLAY, 0, STATIC
        ARGFRAME DOVERLAY, 0, STATIC
        FUNCALL MT_AfDataRequest, osal_memcpy
        LOCFRAME ISTACK, 0, STACK
        LOCFRAME PSTACK, 0, STACK
        LOCFRAME XSTACK, 38, STACK
        LOCFRAME IOVERLAY, 0, STATIC
        LOCFRAME DOVERLAY, 0, STATIC
        ARGFRAME ISTACK, 0, STACK
        ARGFRAME PSTACK, 0, STACK
        ARGFRAME XSTACK, 38, STACK
        ARGFRAME IOVERLAY, 0, STATIC
        ARGFRAME DOVERLAY, 0, STATIC
        FUNCALL MT_AfDataRequest, osal_start_timerEx
        LOCFRAME ISTACK, 0, STACK
        LOCFRAME PSTACK, 0, STACK
        LOCFRAME XSTACK, 35, STACK
        LOCFRAME IOVERLAY, 0, STATIC
        LOCFRAME DOVERLAY, 0, STATIC
        ARGFRAME ISTACK, 0, STACK
        ARGFRAME PSTACK, 0, STACK
        ARGFRAME XSTACK, 35, STACK
        ARGFRAME IOVERLAY, 0, STATIC
        ARGFRAME DOVERLAY, 0, STATIC
        FUNCALL MT_AfDataRequest, osal_set_event
        LOCFRAME ISTACK, 0, STACK
        LOCFRAME PSTACK, 0, STACK
        LOCFRAME XSTACK, 35, STACK
        LOCFRAME IOVERLAY, 0, STATIC
        LOCFRAME DOVERLAY, 0, STATIC
        ARGFRAME ISTACK, 0, STACK
        ARGFRAME PSTACK, 0, STACK
        ARGFRAME XSTACK, 35, STACK
        ARGFRAME IOVERLAY, 0, STATIC
        ARGFRAME DOVERLAY, 0, STATIC
        FUNCALL MT_AfDataRequest, AF_DataRequest
        LOCFRAME ISTACK, 0, STACK
        LOCFRAME PSTACK, 0, STACK
        LOCFRAME XSTACK, 44, STACK
        LOCFRAME IOVERLAY, 0, STATIC
        LOCFRAME DOVERLAY, 0, STATIC
        ARGFRAME ISTACK, 0, STACK
        ARGFRAME PSTACK, 0, STACK
        ARGFRAME XSTACK, 44, STACK
        ARGFRAME IOVERLAY, 0, STATIC
        ARGFRAME DOVERLAY, 0, STATIC
        FUNCALL MT_AfDataRequest, MT_BuildAndSendZToolResponse
        LOCFRAME ISTACK, 0, STACK
        LOCFRAME PSTACK, 0, STACK
        LOCFRAME XSTACK, 35, STACK
        LOCFRAME IOVERLAY, 0, STATIC
        LOCFRAME DOVERLAY, 0, STATIC
        ARGFRAME ISTACK, 0, STACK
        ARGFRAME PSTACK, 0, STACK
        ARGFRAME XSTACK, 35, STACK
        ARGFRAME IOVERLAY, 0, STATIC
        ARGFRAME DOVERLAY, 0, STATIC
        REQUIRE ?V0
        REQUIRE ?V1
        REQUIRE ?V2
        REQUIRE ?V3
        REQUIRE ?V4
        REQUIRE ?V5
        REQUIRE ?V6
        REQUIRE ?V7
        REQUIRE ?V8
        REQUIRE ?V9
        REQUIRE ?V10
        REQUIRE ?V11
        REQUIRE ?V12
        MOV       A,#-0x15
        LCALL     ?BANKED_ENTER_XDATA
          CFI DPH0 load(1, XDATA, add(CFA_XSP16, literal(-1)))
          CFI DPL0 load(1, XDATA, add(CFA_XSP16, literal(-2)))
          CFI ?BRET_EXT load(1, XDATA, add(CFA_XSP16, literal(-3)))
          CFI ?RET_HIGH load(1, XDATA, add(CFA_XSP16, literal(-4)))
          CFI ?RET_LOW load(1, XDATA, add(CFA_XSP16, literal(-5)))
          CFI R7 load(1, XDATA, add(CFA_XSP16, literal(-6)))
          CFI V12 load(1, XDATA, add(CFA_XSP16, literal(-7)))
          CFI V11 load(1, XDATA, add(CFA_XSP16, literal(-8)))
          CFI V10 load(1, XDATA, add(CFA_XSP16, literal(-9)))
          CFI V9 load(1, XDATA, add(CFA_XSP16, literal(-10)))
          CFI V8 load(1, XDATA, add(CFA_XSP16, literal(-11)))
          CFI V7 load(1, XDATA, add(CFA_XSP16, literal(-12)))
          CFI V6 load(1, XDATA, add(CFA_XSP16, literal(-13)))
          CFI V5 load(1, XDATA, add(CFA_XSP16, literal(-14)))
          CFI V4 load(1, XDATA, add(CFA_XSP16, literal(-15)))
          CFI V3 load(1, XDATA, add(CFA_XSP16, literal(-16)))
          CFI V2 load(1, XDATA, add(CFA_XSP16, literal(-17)))
          CFI V1 load(1, XDATA, add(CFA_XSP16, literal(-18)))
          CFI V0 load(1, XDATA, add(CFA_XSP16, literal(-19)))
          CFI VB load(1, XDATA, add(CFA_XSP16, literal(-20)))
          CFI R6 load(1, XDATA, add(CFA_XSP16, literal(-21)))
          CFI CFA_SP SP+0
          CFI CFA_XSP16 add(XSP16, 21)
        ; Saved register size: 21
        ; Auto size: 14
        MOV       A,#-0xe
        LCALL     ?ALLOC_XSTACK8
          CFI CFA_XSP16 add(XSP16, 35)
        MOV       A,R3
        MOV       R7,A
//  319   #define MT_AF_REQ_MSG_LEN  10
//  320   #define MT_AF_REQ_MSG_EXT  10
//  321 
//  322   endPointDesc_t *epDesc;
//  323   afAddrType_t dstAddr;
//  324   cId_t cId;
//  325   uint8 transId, txOpts, radius;
//  326   uint8 cmd0, cmd1;
//  327   uint8 retValue = ZFailure;
        MOV       DPL,?XSP + 0
        MOV       DPH,?XSP + 1
        MOV       A,#0x1
        LCALL     ?Subroutine24 & 0xFFFF
//  328   uint16 dataLen, tempLen;
//  329 
//  330   /* Parse header */
//  331   cmd0 = pBuf[MT_RPC_POS_CMD0];
??CrossCallReturnLabel_35:
        INC       DPTR
        MOVX      A,@DPTR
        MOV       ?V12,A
//  332   cmd1 = pBuf[MT_RPC_POS_CMD1];
        MOV       DPL,R2
        MOV       DPH,R3
        INC       DPTR
        INC       DPTR
        MOVX      A,@DPTR
        MOV       ?V9,A
//  333   pBuf += MT_RPC_FRAME_HDR_SZ;
        MOV       A,R2
        ADD       A,#0x3
        MOV       R6,A
        JNC       ??MT_AfDataRequest_0
        INC       R7
//  334 
//  335   if (cmd1 == MT_AF_DATA_REQUEST_EXT)
??MT_AfDataRequest_0:
        ADD       A,#0x2
        MOV       R0,A
        CLR       A
        ADDC      A,R7
        MOV       R1,A
        MOV       A,R0
        MOV       R2,A
        MOV       A,R1
        MOV       R3,A
        MOV       DPL,R6
        MOV       DPH,R7
        INC       DPTR
        MOV       R0,DPL
        MOV       R1,DPH
        MOV       A,#0x2
        XRL       A,?V9
        JZ        $+5
        LJMP      ??MT_AfDataRequest_1 & 0xFFFF
//  336   {
//  337     dstAddr.addrMode = (afAddrMode_t)*pBuf++;
        MOV       DPL,R6
        MOV       DPH,R7
        MOVX      A,@DPTR
        MOV       R4,A
        MOV       A,#0xa
        LCALL     ?XSTACK_DISP0_8
        MOV       A,R4
        MOVX      @DPTR,A
        MOV       A,R0
        MOV       R6,A
        MOV       A,R1
        MOV       R7,A
//  338 
//  339     if (dstAddr.addrMode == afAddr64Bit)
        MOV       A,#0x3
        XRL       A,R4
        JNZ       ??MT_AfDataRequest_2
//  340     {
//  341       (void)osal_memcpy(dstAddr.addr.extAddr, pBuf, Z_EXTADDR_LEN);
        ; Setup parameters for call to function osal_memcpy
        MOV       ?V0,R0
        MOV       ?V1,R1
        MOV       ?V2,#0x0
        MOV       R0,#?V0
        LCALL     ?PUSH_XSTACK_I_THREE
          CFI CFA_XSP16 add(XSP16, 38)
        MOV       R4,#0x8
        MOV       R5,#0x0
        MOV       A,#0x5
        LCALL     ?XSTACK_DISP101_8
        LCALL     ??Subroutine41_0 & 0xFFFF
//  342     }
??CrossCallReturnLabel_83:
        LCALL     ?DEALLOC_XSTACK8
          CFI CFA_XSP16 add(XSP16, 35)
        SJMP      ??CrossCallReturnLabel_69
//  343     else
//  344     {
//  345       dstAddr.addr.shortAddr = BUILD_UINT16(pBuf[0], pBuf[1]);
??MT_AfDataRequest_2:
        MOV       DPL,R0
        MOV       DPH,R1
        MOVX      A,@DPTR
        MOV       R4,A
        MOV       DPL,R2
        MOV       DPH,R3
        MOVX      A,@DPTR
        MOV       R1,A
        MOV       A,#0x2
        LCALL     ?XSTACK_DISP0_8
        MOV       A,R4
        LCALL     ??Subroutine38_0 & 0xFFFF
//  346     }
//  347     pBuf += Z_EXTADDR_LEN;
//  348 
//  349     dstAddr.endPoint = *pBuf++;
??CrossCallReturnLabel_69:
        MOV       DPL,R6
        MOV       DPH,R7
        INC       DPTR
        INC       DPTR
        INC       DPTR
        INC       DPTR
        INC       DPTR
        INC       DPTR
        INC       DPTR
        INC       DPTR
        MOVX      A,@DPTR
        PUSH      A
          CFI CFA_SP SP+-1
        MOV       A,#0xb
        LCALL     ?XSTACK_DISP0_8
        POP       A
          CFI CFA_SP SP+0
        MOVX      @DPTR,A
        MOV       A,R6
        ADD       A,#0x9
        MOV       R6,A
        JNC       ??MT_AfDataRequest_3
        INC       R7
//  350     dstAddr.panId = BUILD_UINT16(pBuf[0], pBuf[1]);
??MT_AfDataRequest_3:
        MOV       DPL,A
        MOV       DPH,R7
        MOVX      A,@DPTR
        MOV       R2,A
        INC       DPTR
        MOVX      A,@DPTR
        MOV       R1,A
        MOV       A,#0xc
        LCALL     ?XSTACK_DISP0_8
        MOV       A,R2
        LCALL     ??Subroutine38_0 & 0xFFFF
//  351     pBuf += 2;
??CrossCallReturnLabel_70:
        MOV       A,R6
        ADD       A,#0x2
        MOV       R6,A
        JNC       ??MT_AfDataRequest_4
        INC       R7
        SJMP      ??MT_AfDataRequest_4
//  352   }
//  353   else
//  354   {
//  355     /* Destination address */
//  356     dstAddr.addrMode = afAddr16Bit;
??MT_AfDataRequest_1:
        MOV       A,#0xa
        LCALL     ?XSTACK_DISP0_8
        LCALL     ?Subroutine26 & 0xFFFF
//  357     dstAddr.addr.shortAddr = BUILD_UINT16(pBuf[0], pBuf[1]);
??CrossCallReturnLabel_65:
        MOVX      A,@DPTR
        MOV       R4,A
        MOV       DPL,R0
        MOV       DPH,R1
        MOVX      A,@DPTR
        MOV       R1,A
        MOV       A,#0x2
        LCALL     ?XSTACK_DISP0_8
        MOV       A,R4
        MOVX      @DPTR,A
        INC       DPTR
        MOV       A,R1
        LCALL     ?Subroutine24 & 0xFFFF
//  358     pBuf += 2;
//  359 
//  360     /* Destination endpoint */
//  361     dstAddr.endPoint = *pBuf++;
??CrossCallReturnLabel_36:
        MOVX      A,@DPTR
        PUSH      A
          CFI CFA_SP SP+-1
        MOV       A,#0xb
        LCALL     ?XSTACK_DISP0_8
        POP       A
          CFI CFA_SP SP+0
        MOVX      @DPTR,A
        MOV       A,R6
        ADD       A,#0x3
        MOV       R6,A
        JNC       ??MT_AfDataRequest_5
        INC       R7
//  362     dstAddr.panId = 0;
??MT_AfDataRequest_5:
        MOV       A,#0xc
        LCALL     ?XSTACK_DISP0_8
        CLR       A
        MOVX      @DPTR,A
        INC       DPTR
        MOVX      @DPTR,A
//  363   }
//  364 
//  365   /* Source endpoint */
//  366   epDesc = afFindEndPointDesc(*pBuf++);
??MT_AfDataRequest_4:
        ; Setup parameters for call to function afFindEndPointDesc
        MOV       DPL,R6
        MOV       DPH,R7
        MOVX      A,@DPTR
        MOV       R1,A
        LCALL     `??afFindEndPointDesc::?relay`; Banked call to: afFindEndPointDesc
        MOV       ?V10,R2
        MOV       ?V11,R3
        MOV       DPL,R6
        MOV       DPH,R7
        INC       DPTR
        MOV       R6,DPL
        MOV       R7,DPH
//  367 
//  368   /* ClusterId */
//  369   cId = BUILD_UINT16(pBuf[0], pBuf[1]);
        MOVX      A,@DPTR
        MOV       R2,A
        INC       DPTR
        LCALL     ??Subroutine43_0 & 0xFFFF
??CrossCallReturnLabel_92:
        MOV       A,R2
        ADD       A,R0
        MOV       ?V2,A
        CLR       A
        ADDC      A,R1
        MOV       ?V3,A
//  370   pBuf +=2;
//  371 
//  372   /* TransId */
//  373   transId = *pBuf++;
        MOV       DPL,R6
        MOV       DPH,R7
        INC       DPTR
        INC       DPTR
        MOVX      A,@DPTR
        PUSH      A
          CFI CFA_SP SP+-1
        MOV       A,#0x1
        LCALL     ?XSTACK_DISP0_8
        POP       A
          CFI CFA_SP SP+0
        LCALL     ??Subroutine37_0 & 0xFFFF
//  374 
//  375   /* TxOption */
//  376   txOpts = *pBuf++;
??CrossCallReturnLabel_67:
        LCALL     ?Subroutine9 & 0xFFFF
//  377 
//  378   /* Radius */
//  379   radius = *pBuf++;
??CrossCallReturnLabel_9:
        MOVX      A,@DPTR
        MOV       ?V7,A
        MOV       A,R6
        ADD       A,#0x5
        MOV       R6,A
        JNC       ??MT_AfDataRequest_6
        INC       R7
//  380 
//  381   /* Length */
//  382   if (cmd1 == MT_AF_DATA_REQUEST_EXT)
??MT_AfDataRequest_6:
        MOV       DPL,A
        MOV       DPH,R7
        INC       DPTR
        MOV       R0,DPL
        MOV       R1,DPH
        MOV       DPL,A
        MOV       DPH,R7
        MOVX      A,@DPTR
        MOV       R2,A
        MOV       A,#0x2
        XRL       A,?V9
        JNZ       ??MT_AfDataRequest_7
//  383   {
//  384     dataLen = BUILD_UINT16(pBuf[0], pBuf[1]);
        LCALL     ?Subroutine11 & 0xFFFF
??CrossCallReturnLabel_94:
        MOV       A,R2
        ADD       A,R0
        MOV       ?V0,A
        CLR       A
        ADDC      A,R1
        MOV       ?V1,A
//  385     tempLen = dataLen + MT_AF_REQ_MSG_LEN + MT_AF_REQ_MSG_EXT;
        MOV       A,R2
        ADD       A,#0x14
        MOV       R0,A
        CLR       A
        ADDC      A,?V1
        MOV       R1,A
//  386     pBuf += 2;
        MOV       A,R6
        ADD       A,#0x2
        MOV       R6,A
        JNC       ??MT_AfDataRequest_8
        INC       R7
        SJMP      ??MT_AfDataRequest_8
//  387   }
//  388   else
//  389   {
//  390     dataLen = *pBuf++;
??MT_AfDataRequest_7:
        MOV       A,R2
        MOV       ?V0,A
        MOV       ?V1,#0x0
        INC       R6
        MOV       A,R1
        MOV       R7,A
//  391     tempLen = dataLen + MT_AF_REQ_MSG_LEN;
        MOV       A,R2
        ADD       A,#0xa
        MOV       R0,A
        CLR       A
        ADDC      A,#0x0
        MOV       R1,A
//  392   }
//  393 
//  394   if ( epDesc == NULL )
??MT_AfDataRequest_8:
        MOV       A,?V10
        ORL       A,R3
        JZ        ??MT_AfDataRequest_9
//  395   {
//  396     retValue = afStatus_INVALID_PARAMETER;
//  397   }
//  398   else if (tempLen > (uint16)MT_RPC_DATA_MAX)
        CLR       C
        MOV       A,R0
        SUBB      A,#-0x5
        MOV       A,R1
        SUBB      A,#0x0
        JNC       $+5
        LJMP      ??MT_AfDataRequest_10 & 0xFFFF
//  399   {
//  400     if (pMtAfDataReq != NULL)
        LCALL     ?Subroutine4 & 0xFFFF
??CrossCallReturnLabel_63:
        JZ        ??MT_AfDataRequest_11
//  401     {
//  402       retValue = afStatus_INVALID_PARAMETER;
??MT_AfDataRequest_9:
        MOV       DPL,?XSP + 0
        MOV       DPH,?XSP + 1
        MOV       A,#0x2
        LJMP      ??MT_AfDataRequest_12 & 0xFFFF
//  403     }
//  404     else if ((pMtAfDataReq = osal_mem_alloc(sizeof(mtAfDataReq_t) + dataLen)) == NULL)
??MT_AfDataRequest_11:
        ; Setup parameters for call to function osal_mem_alloc
        MOV       A,R2
        ADD       A,#0x18
        MOV       R2,A
        CLR       A
        ADDC      A,?V1
        MOV       R3,A
        LCALL     `??osal_mem_alloc::?relay`; Banked call to: osal_mem_alloc
        MOV       DPTR,#pMtAfDataReq
        MOV       A,R2
        MOVX      @DPTR,A
        INC       DPTR
        MOV       A,R3
        MOVX      @DPTR,A
        MOV       R1,A
        MOV       A,R2
        ORL       A,R1
        MOV       DPL,?XSP + 0
        MOV       DPH,?XSP + 1
        JNZ       ??MT_AfDataRequest_13
//  405     {
//  406       retValue = afStatus_MEM_FAIL;
        MOV       A,#0x10
        LJMP      ??MT_AfDataRequest_12 & 0xFFFF
//  407     }
//  408     else
//  409     {
//  410       retValue = afStatus_SUCCESS;
??MT_AfDataRequest_13:
        CLR       A
        MOVX      @DPTR,A
//  411 
//  412       pMtAfDataReq->data = (uint8 *)(pMtAfDataReq+1);
        MOV       DPTR,#pMtAfDataReq
        MOVX      A,@DPTR
        ADD       A,#0x18
        MOV       R2,A
        INC       DPTR
        MOVX      A,@DPTR
        ADDC      A,#0x0
        MOV       R3,A
        MOV       DPTR,#pMtAfDataReq
        MOVX      A,@DPTR
        MOV       R0,A
        INC       DPTR
        MOVX      A,@DPTR
        MOV       DPH,A
        MOV       DPL,R0
        MOV       A,R2
        MOVX      @DPTR,A
        INC       DPTR
        MOV       A,R3
        MOVX      @DPTR,A
//  413       (void)osal_memcpy(&(pMtAfDataReq->dstAddr), &dstAddr, sizeof(afAddrType_t));
        ; Setup parameters for call to function osal_memcpy
        MOV       A,#0x2
        LCALL     ?XSTACK_DISP100_8
        MOV       ?V4,R0
        MOV       ?V5,R1
        MOV       ?V6,#0x0
        MOV       R0,#?V4
        LCALL     ?PUSH_XSTACK_I_THREE
          CFI CFA_XSP16 add(XSP16, 38)
        MOV       R4,#0xc
        MOV       R5,#0x0
        LCALL     ?Subroutine13 & 0xFFFF
??CrossCallReturnLabel_13:
        LCALL     ??Subroutine41_0 & 0xFFFF
??CrossCallReturnLabel_84:
        LCALL     ?DEALLOC_XSTACK8
          CFI CFA_XSP16 add(XSP16, 35)
//  414       pMtAfDataReq->epDesc = epDesc;
        LCALL     ??Subroutine35_0 & 0xFFFF
??CrossCallReturnLabel_58:
        LCALL     ?Subroutine29 & 0xFFFF
??CrossCallReturnLabel_43:
        MOV       A,?V10
        MOVX      @DPTR,A
        INC       DPTR
        MOV       A,?V11
        LCALL     ?Subroutine7 & 0xFFFF
//  415       pMtAfDataReq->cId = cId;
??CrossCallReturnLabel_54:
        ADD       A,#0x10
        MOV       DPL,A
        CLR       A
        ADDC      A,R0
        MOV       DPH,A
        MOV       A,?V2
        MOVX      @DPTR,A
        INC       DPTR
        MOV       A,?V3
        LCALL     ?Subroutine7 & 0xFFFF
//  416       pMtAfDataReq->dataLen = dataLen;
??CrossCallReturnLabel_55:
        ADD       A,#0x12
        MOV       DPL,A
        CLR       A
        ADDC      A,R0
        MOV       DPH,A
        MOV       A,?V0
        MOVX      @DPTR,A
        INC       DPTR
        MOV       A,?V1
        MOVX      @DPTR,A
//  417       pMtAfDataReq->transId = transId;
        MOV       A,#0x1
        LCALL     ?XSTACK_DISP0_8
        MOVX      A,@DPTR
        PUSH      A
          CFI CFA_SP SP+-1
        LCALL     ??Subroutine35_0 & 0xFFFF
??CrossCallReturnLabel_59:
        ADD       A,#0x14
        MOV       DPL,A
        CLR       A
        ADDC      A,R0
        MOV       DPH,A
        POP       A
          CFI CFA_SP SP+0
        LCALL     ?Subroutine7 & 0xFFFF
//  418       pMtAfDataReq->txOpts = txOpts;
??CrossCallReturnLabel_56:
        ADD       A,#0x15
        MOV       DPL,A
        CLR       A
        ADDC      A,R0
        MOV       DPH,A
        MOV       A,?V8
        LCALL     ?Subroutine7 & 0xFFFF
//  419       pMtAfDataReq->radius = radius;
??CrossCallReturnLabel_57:
        ADD       A,#0x16
        MOV       DPL,A
        CLR       A
        ADDC      A,R0
        MOV       DPH,A
        MOV       A,?V7
        LCALL     ?Subroutine6 & 0xFFFF
//  420 
//  421       // Setup to time-out the huge outgoing item if host does not MT_AF_DATA_STORE it.
//  422       pMtAfDataReq->tick = MT_AF_EXEC_CNT;
??CrossCallReturnLabel_4:
        LCALL     ?Subroutine12 & 0xFFFF
//  423       if (ZSuccess != osal_start_timerEx(MT_TaskID, MT_AF_EXEC_EVT, MT_AF_EXEC_DLY))
??CrossCallReturnLabel_51:
        JZ        ??MT_AfDataRequest_14
//  424       {
//  425         (void)osal_set_event(MT_TaskID, MT_AF_EXEC_EVT);
        ; Setup parameters for call to function osal_set_event
        LCALL     ?Subroutine19 & 0xFFFF
//  426       }
//  427     }
//  428   }
??CrossCallReturnLabel_26:
        SJMP      ??MT_AfDataRequest_14
//  429   else
//  430   {
//  431     retValue = AF_DataRequest(&dstAddr, epDesc, cId, dataLen, pBuf, &transId, txOpts, radius);
??MT_AfDataRequest_10:
        ; Setup parameters for call to function AF_DataRequest
        MOV       A,?V7
        MOV       ?V4,A
        MOV       R0,#?V4
        LCALL     ?PUSH_XSTACK_I_ONE
          CFI CFA_XSP16 add(XSP16, 36)
        MOV       A,#0x2
        LCALL     ?XSTACK_DISP100_8
        MOV       ?V4,R0
        MOV       ?V5,R1
        MOV       R0,#?V4
        LCALL     ?PUSH_XSTACK_I_TWO
          CFI CFA_XSP16 add(XSP16, 38)
        MOV       ?V4,R6
        MOV       ?V5,R7
        MOV       R0,#?V4
        LCALL     ?PUSH_XSTACK_I_TWO
          CFI CFA_XSP16 add(XSP16, 40)
        MOV       R0,#?V0
        LCALL     ?PUSH_XSTACK_I_TWO
          CFI CFA_XSP16 add(XSP16, 42)
        MOV       R0,#?V2
        LCALL     ?PUSH_XSTACK_I_TWO
          CFI CFA_XSP16 add(XSP16, 44)
        MOV       R1,?V8
        MOV       R4,?V10
        MOV       R5,?V11
        MOV       A,#0xb
        LCALL     ?XSTACK_DISP101_8
        LCALL     `??AF_DataRequest::?relay`; Banked call to: AF_DataRequest
        MOV       A,#0x9
        LCALL     ?DEALLOC_XSTACK8
          CFI CFA_XSP16 add(XSP16, 35)
        MOV       A,R1
        MOV       DPL,?XSP + 0
        MOV       DPH,?XSP + 1
??MT_AfDataRequest_12:
        MOVX      @DPTR,A
//  432   }
//  433 
//  434   if (MT_RPC_CMD_SREQ == (cmd0 & MT_RPC_CMD_TYPE_MASK))
??MT_AfDataRequest_14:
        MOV       A,#-0x20
        ANL       A,?V12
        XRL       A,#0x20
        JNZ       ??MT_AfDataRequest_15
//  435   {
//  436     MT_BuildAndSendZToolResponse(((uint8)MT_RPC_CMD_SRSP|(uint8)MT_RPC_SYS_AF), cmd1, 1, &retValue);
        ; Setup parameters for call to function MT_BuildAndSendZToolResponse
        MOV       R4,?XSP + 0
        MOV       R5,?XSP + 1
        MOV       R3,#0x1
        MOV       R2,?V9
        MOV       R1,#0x64
        LCALL     `??MT_BuildAndSendZToolResponse::?relay`; Banked call to: MT_BuildAndSendZToolResponse
//  437   }
//  438 }
??MT_AfDataRequest_15:
          CFI EndBlock cfiBlock8
        REQUIRE ?Subroutine2
        ; // Fall through to label ?Subroutine2

        RSEG BANKED_CODE:HUGECODE:NOROOT(0)
?Subroutine2:
          CFI Block cfiBlock9 Using cfiCommon0
          CFI NoFunction
          CFI CFA_SP SP+0
          CFI CFA_XSP16 add(XSP16, 35)
          CFI VB load(1, XDATA, add(CFA_XSP16, literal(-20)))
          CFI DPL0 load(1, XDATA, add(CFA_XSP16, literal(-2)))
          CFI DPH0 load(1, XDATA, add(CFA_XSP16, literal(-1)))
          CFI R6 load(1, XDATA, add(CFA_XSP16, literal(-21)))
          CFI R7 load(1, XDATA, add(CFA_XSP16, literal(-6)))
          CFI V0 load(1, XDATA, add(CFA_XSP16, literal(-19)))
          CFI V1 load(1, XDATA, add(CFA_XSP16, literal(-18)))
          CFI V2 load(1, XDATA, add(CFA_XSP16, literal(-17)))
          CFI V3 load(1, XDATA, add(CFA_XSP16, literal(-16)))
          CFI V4 load(1, XDATA, add(CFA_XSP16, literal(-15)))
          CFI V5 load(1, XDATA, add(CFA_XSP16, literal(-14)))
          CFI V6 load(1, XDATA, add(CFA_XSP16, literal(-13)))
          CFI V7 load(1, XDATA, add(CFA_XSP16, literal(-12)))
          CFI V8 load(1, XDATA, add(CFA_XSP16, literal(-11)))
          CFI V9 load(1, XDATA, add(CFA_XSP16, literal(-10)))
          CFI V10 load(1, XDATA, add(CFA_XSP16, literal(-9)))
          CFI V11 load(1, XDATA, add(CFA_XSP16, literal(-8)))
          CFI V12 load(1, XDATA, add(CFA_XSP16, literal(-7)))
          CFI ?BRET_EXT load(1, XDATA, add(CFA_XSP16, literal(-3)))
          CFI ?RET_HIGH load(1, XDATA, add(CFA_XSP16, literal(-4)))
          CFI ?RET_LOW load(1, XDATA, add(CFA_XSP16, literal(-5)))
        MOV       A,#0xe
        LCALL     ?DEALLOC_XSTACK8
          CFI CFA_XSP16 add(XSP16, 21)
        MOV       R7,#0xd
        LJMP      ?BANKED_LEAVE_XDATA
          CFI EndBlock cfiBlock9

        RSEG BANKED_CODE:HUGECODE:NOROOT(0)
?Subroutine19:
          CFI Block cfiCond10 Using cfiCommon0
          CFI Function MT_AfExec
          CFI Conditional ??CrossCallReturnLabel_25
          CFI R6 load(1, XDATA, add(CFA_XSP16, literal(-9)))
          CFI VB load(1, XDATA, add(CFA_XSP16, literal(-8)))
          CFI V0 load(1, XDATA, add(CFA_XSP16, literal(-7)))
          CFI R7 load(1, XDATA, add(CFA_XSP16, literal(-6)))
          CFI ?RET_LOW load(1, XDATA, add(CFA_XSP16, literal(-5)))
          CFI ?RET_HIGH load(1, XDATA, add(CFA_XSP16, literal(-4)))
          CFI ?BRET_EXT load(1, XDATA, add(CFA_XSP16, literal(-3)))
          CFI DPL0 load(1, XDATA, add(CFA_XSP16, literal(-2)))
          CFI DPH0 load(1, XDATA, add(CFA_XSP16, literal(-1)))
          CFI CFA_SP SP+-2
          CFI CFA_XSP16 add(XSP16, 9)
          CFI Block cfiCond11 Using cfiCommon0
          CFI (cfiCond11) Function MT_AfDataRequest
          CFI (cfiCond11) Conditional ??CrossCallReturnLabel_26
          CFI (cfiCond11) R6 load(1, XDATA, add(CFA_XSP16, literal(-21)))
          CFI (cfiCond11) VB load(1, XDATA, add(CFA_XSP16, literal(-20)))
          CFI (cfiCond11) V0 load(1, XDATA, add(CFA_XSP16, literal(-19)))
          CFI (cfiCond11) V1 load(1, XDATA, add(CFA_XSP16, literal(-18)))
          CFI (cfiCond11) V2 load(1, XDATA, add(CFA_XSP16, literal(-17)))
          CFI (cfiCond11) V3 load(1, XDATA, add(CFA_XSP16, literal(-16)))
          CFI (cfiCond11) V4 load(1, XDATA, add(CFA_XSP16, literal(-15)))
          CFI (cfiCond11) V5 load(1, XDATA, add(CFA_XSP16, literal(-14)))
          CFI (cfiCond11) V6 load(1, XDATA, add(CFA_XSP16, literal(-13)))
          CFI (cfiCond11) V7 load(1, XDATA, add(CFA_XSP16, literal(-12)))
          CFI (cfiCond11) V8 load(1, XDATA, add(CFA_XSP16, literal(-11)))
          CFI (cfiCond11) V9 load(1, XDATA, add(CFA_XSP16, literal(-10)))
          CFI (cfiCond11) V10 load(1, XDATA, add(CFA_XSP16, literal(-9)))
          CFI (cfiCond11) V11 load(1, XDATA, add(CFA_XSP16, literal(-8)))
          CFI (cfiCond11) V12 load(1, XDATA, add(CFA_XSP16, literal(-7)))
          CFI (cfiCond11) R7 load(1, XDATA, add(CFA_XSP16, literal(-6)))
          CFI (cfiCond11) ?RET_LOW load(1, XDATA, add(CFA_XSP16, literal(-5)))
          CFI (cfiCond11) ?RET_HIGH load(1, XDATA, add(CFA_XSP16, literal(-4)))
          CFI (cfiCond11) ?BRET_EXT load(1, XDATA, add(CFA_XSP16, literal(-3)))
          CFI (cfiCond11) DPL0 load(1, XDATA, add(CFA_XSP16, literal(-2)))
          CFI (cfiCond11) DPH0 load(1, XDATA, add(CFA_XSP16, literal(-1)))
          CFI (cfiCond11) CFA_SP SP+-2
          CFI (cfiCond11) CFA_XSP16 add(XSP16, 35)
          CFI Block cfiCond12 Using cfiCommon0
          CFI (cfiCond12) Function MT_AfIncomingMsg
          CFI (cfiCond12) Conditional ??CrossCallReturnLabel_27
          CFI (cfiCond12) R6 load(1, XDATA, add(CFA_XSP16, literal(-24)))
          CFI (cfiCond12) VB load(1, XDATA, add(CFA_XSP16, literal(-23)))
          CFI (cfiCond12) V0 load(1, XDATA, add(CFA_XSP16, literal(-22)))
          CFI (cfiCond12) V1 load(1, XDATA, add(CFA_XSP16, literal(-21)))
          CFI (cfiCond12) V2 load(1, XDATA, add(CFA_XSP16, literal(-20)))
          CFI (cfiCond12) V3 load(1, XDATA, add(CFA_XSP16, literal(-19)))
          CFI (cfiCond12) V4 load(1, XDATA, add(CFA_XSP16, literal(-18)))
          CFI (cfiCond12) V5 load(1, XDATA, add(CFA_XSP16, literal(-17)))
          CFI (cfiCond12) V6 load(1, XDATA, add(CFA_XSP16, literal(-16)))
          CFI (cfiCond12) V7 load(1, XDATA, add(CFA_XSP16, literal(-15)))
          CFI (cfiCond12) V8 load(1, XDATA, add(CFA_XSP16, literal(-14)))
          CFI (cfiCond12) V9 load(1, XDATA, add(CFA_XSP16, literal(-13)))
          CFI (cfiCond12) V10 load(1, XDATA, add(CFA_XSP16, literal(-12)))
          CFI (cfiCond12) V11 load(1, XDATA, add(CFA_XSP16, literal(-11)))
          CFI (cfiCond12) V12 load(1, XDATA, add(CFA_XSP16, literal(-10)))
          CFI (cfiCond12) V13 load(1, XDATA, add(CFA_XSP16, literal(-9)))
          CFI (cfiCond12) V14 load(1, XDATA, add(CFA_XSP16, literal(-8)))
          CFI (cfiCond12) V15 load(1, XDATA, add(CFA_XSP16, literal(-7)))
          CFI (cfiCond12) R7 load(1, XDATA, add(CFA_XSP16, literal(-6)))
          CFI (cfiCond12) ?RET_LOW load(1, XDATA, add(CFA_XSP16, literal(-5)))
          CFI (cfiCond12) ?RET_HIGH load(1, XDATA, add(CFA_XSP16, literal(-4)))
          CFI (cfiCond12) ?BRET_EXT load(1, XDATA, add(CFA_XSP16, literal(-3)))
          CFI (cfiCond12) DPL0 load(1, XDATA, add(CFA_XSP16, literal(-2)))
          CFI (cfiCond12) DPH0 load(1, XDATA, add(CFA_XSP16, literal(-1)))
          CFI (cfiCond12) CFA_SP SP+-2
          CFI (cfiCond12) CFA_XSP16 add(XSP16, 25)
          CFI Block cfiPicker13 Using cfiCommon1
          CFI (cfiPicker13) NoFunction
          CFI (cfiPicker13) Picker
        MOV       R2,#0x8
        MOV       R3,#0x0
        MOV       DPTR,#MT_TaskID
        MOVX      A,@DPTR
        MOV       R1,A
        LCALL     `??osal_set_event::?relay`; Banked call to: osal_set_event
        RET
          CFI EndBlock cfiCond10
          CFI EndBlock cfiCond11
          CFI EndBlock cfiCond12
          CFI EndBlock cfiPicker13

        RSEG BANKED_CODE:HUGECODE:NOROOT(0)
?Subroutine12:
          CFI Block cfiCond14 Using cfiCommon0
          CFI Function MT_AfDataRequest
          CFI Conditional ??CrossCallReturnLabel_51
          CFI R6 load(1, XDATA, add(CFA_XSP16, literal(-21)))
          CFI VB load(1, XDATA, add(CFA_XSP16, literal(-20)))
          CFI V0 load(1, XDATA, add(CFA_XSP16, literal(-19)))
          CFI V1 load(1, XDATA, add(CFA_XSP16, literal(-18)))
          CFI V2 load(1, XDATA, add(CFA_XSP16, literal(-17)))
          CFI V3 load(1, XDATA, add(CFA_XSP16, literal(-16)))
          CFI V4 load(1, XDATA, add(CFA_XSP16, literal(-15)))
          CFI V5 load(1, XDATA, add(CFA_XSP16, literal(-14)))
          CFI V6 load(1, XDATA, add(CFA_XSP16, literal(-13)))
          CFI V7 load(1, XDATA, add(CFA_XSP16, literal(-12)))
          CFI V8 load(1, XDATA, add(CFA_XSP16, literal(-11)))
          CFI V9 load(1, XDATA, add(CFA_XSP16, literal(-10)))
          CFI V10 load(1, XDATA, add(CFA_XSP16, literal(-9)))
          CFI V11 load(1, XDATA, add(CFA_XSP16, literal(-8)))
          CFI V12 load(1, XDATA, add(CFA_XSP16, literal(-7)))
          CFI R7 load(1, XDATA, add(CFA_XSP16, literal(-6)))
          CFI ?RET_LOW load(1, XDATA, add(CFA_XSP16, literal(-5)))
          CFI ?RET_HIGH load(1, XDATA, add(CFA_XSP16, literal(-4)))
          CFI ?BRET_EXT load(1, XDATA, add(CFA_XSP16, literal(-3)))
          CFI DPL0 load(1, XDATA, add(CFA_XSP16, literal(-2)))
          CFI DPH0 load(1, XDATA, add(CFA_XSP16, literal(-1)))
          CFI CFA_SP SP+-2
          CFI CFA_XSP16 add(XSP16, 35)
          CFI Block cfiCond15 Using cfiCommon0
          CFI (cfiCond15) Function MT_AfIncomingMsg
          CFI (cfiCond15) Conditional ??CrossCallReturnLabel_52
          CFI (cfiCond15) R6 load(1, XDATA, add(CFA_XSP16, literal(-24)))
          CFI (cfiCond15) VB load(1, XDATA, add(CFA_XSP16, literal(-23)))
          CFI (cfiCond15) V0 load(1, XDATA, add(CFA_XSP16, literal(-22)))
          CFI (cfiCond15) V1 load(1, XDATA, add(CFA_XSP16, literal(-21)))
          CFI (cfiCond15) V2 load(1, XDATA, add(CFA_XSP16, literal(-20)))
          CFI (cfiCond15) V3 load(1, XDATA, add(CFA_XSP16, literal(-19)))
          CFI (cfiCond15) V4 load(1, XDATA, add(CFA_XSP16, literal(-18)))
          CFI (cfiCond15) V5 load(1, XDATA, add(CFA_XSP16, literal(-17)))
          CFI (cfiCond15) V6 load(1, XDATA, add(CFA_XSP16, literal(-16)))
          CFI (cfiCond15) V7 load(1, XDATA, add(CFA_XSP16, literal(-15)))
          CFI (cfiCond15) V8 load(1, XDATA, add(CFA_XSP16, literal(-14)))
          CFI (cfiCond15) V9 load(1, XDATA, add(CFA_XSP16, literal(-13)))
          CFI (cfiCond15) V10 load(1, XDATA, add(CFA_XSP16, literal(-12)))
          CFI (cfiCond15) V11 load(1, XDATA, add(CFA_XSP16, literal(-11)))
          CFI (cfiCond15) V12 load(1, XDATA, add(CFA_XSP16, literal(-10)))
          CFI (cfiCond15) V13 load(1, XDATA, add(CFA_XSP16, literal(-9)))
          CFI (cfiCond15) V14 load(1, XDATA, add(CFA_XSP16, literal(-8)))
          CFI (cfiCond15) V15 load(1, XDATA, add(CFA_XSP16, literal(-7)))
          CFI (cfiCond15) R7 load(1, XDATA, add(CFA_XSP16, literal(-6)))
          CFI (cfiCond15) ?RET_LOW load(1, XDATA, add(CFA_XSP16, literal(-5)))
          CFI (cfiCond15) ?RET_HIGH load(1, XDATA, add(CFA_XSP16, literal(-4)))
          CFI (cfiCond15) ?BRET_EXT load(1, XDATA, add(CFA_XSP16, literal(-3)))
          CFI (cfiCond15) DPL0 load(1, XDATA, add(CFA_XSP16, literal(-2)))
          CFI (cfiCond15) DPH0 load(1, XDATA, add(CFA_XSP16, literal(-1)))
          CFI (cfiCond15) CFA_SP SP+-2
          CFI (cfiCond15) CFA_XSP16 add(XSP16, 25)
          CFI Block cfiPicker16 Using cfiCommon1
          CFI (cfiPicker16) NoFunction
          CFI (cfiPicker16) Picker
        MOV       A,#0xf
        MOVX      @DPTR,A
          CFI EndBlock cfiCond14
          CFI EndBlock cfiCond15
          CFI EndBlock cfiPicker16
        ; Setup parameters for call to function osal_start_timerEx
        ; Setup parameters for call to function osal_start_timerEx
        REQUIRE ??Subroutine34_0
        ; // Fall through to label ??Subroutine34_0

        RSEG BANKED_CODE:HUGECODE:NOROOT(0)
??Subroutine34_0:
          CFI Block cfiCond17 Using cfiCommon0
          CFI Function MT_AfExec
          CFI Conditional ??CrossCallReturnLabel_53
          CFI R6 load(1, XDATA, add(CFA_XSP16, literal(-9)))
          CFI VB load(1, XDATA, add(CFA_XSP16, literal(-8)))
          CFI V0 load(1, XDATA, add(CFA_XSP16, literal(-7)))
          CFI R7 load(1, XDATA, add(CFA_XSP16, literal(-6)))
          CFI ?RET_LOW load(1, XDATA, add(CFA_XSP16, literal(-5)))
          CFI ?RET_HIGH load(1, XDATA, add(CFA_XSP16, literal(-4)))
          CFI ?BRET_EXT load(1, XDATA, add(CFA_XSP16, literal(-3)))
          CFI DPL0 load(1, XDATA, add(CFA_XSP16, literal(-2)))
          CFI DPH0 load(1, XDATA, add(CFA_XSP16, literal(-1)))
          CFI CFA_SP SP+-2
          CFI CFA_XSP16 add(XSP16, 9)
          CFI Block cfiCond18 Using cfiCommon0
          CFI (cfiCond18) Function MT_AfDataRequest
          CFI (cfiCond18) Conditional ??CrossCallReturnLabel_51
          CFI (cfiCond18) R6 load(1, XDATA, add(CFA_XSP16, literal(-21)))
          CFI (cfiCond18) VB load(1, XDATA, add(CFA_XSP16, literal(-20)))
          CFI (cfiCond18) V0 load(1, XDATA, add(CFA_XSP16, literal(-19)))
          CFI (cfiCond18) V1 load(1, XDATA, add(CFA_XSP16, literal(-18)))
          CFI (cfiCond18) V2 load(1, XDATA, add(CFA_XSP16, literal(-17)))
          CFI (cfiCond18) V3 load(1, XDATA, add(CFA_XSP16, literal(-16)))
          CFI (cfiCond18) V4 load(1, XDATA, add(CFA_XSP16, literal(-15)))
          CFI (cfiCond18) V5 load(1, XDATA, add(CFA_XSP16, literal(-14)))
          CFI (cfiCond18) V6 load(1, XDATA, add(CFA_XSP16, literal(-13)))
          CFI (cfiCond18) V7 load(1, XDATA, add(CFA_XSP16, literal(-12)))
          CFI (cfiCond18) V8 load(1, XDATA, add(CFA_XSP16, literal(-11)))
          CFI (cfiCond18) V9 load(1, XDATA, add(CFA_XSP16, literal(-10)))
          CFI (cfiCond18) V10 load(1, XDATA, add(CFA_XSP16, literal(-9)))
          CFI (cfiCond18) V11 load(1, XDATA, add(CFA_XSP16, literal(-8)))
          CFI (cfiCond18) V12 load(1, XDATA, add(CFA_XSP16, literal(-7)))
          CFI (cfiCond18) R7 load(1, XDATA, add(CFA_XSP16, literal(-6)))
          CFI (cfiCond18) ?RET_LOW load(1, XDATA, add(CFA_XSP16, literal(-5)))
          CFI (cfiCond18) ?RET_HIGH load(1, XDATA, add(CFA_XSP16, literal(-4)))
          CFI (cfiCond18) ?BRET_EXT load(1, XDATA, add(CFA_XSP16, literal(-3)))
          CFI (cfiCond18) DPL0 load(1, XDATA, add(CFA_XSP16, literal(-2)))
          CFI (cfiCond18) DPH0 load(1, XDATA, add(CFA_XSP16, literal(-1)))
          CFI (cfiCond18) CFA_SP SP+-2
          CFI (cfiCond18) CFA_XSP16 add(XSP16, 35)
          CFI Block cfiCond19 Using cfiCommon0
          CFI (cfiCond19) Function MT_AfIncomingMsg
          CFI (cfiCond19) Conditional ??CrossCallReturnLabel_52
          CFI (cfiCond19) R6 load(1, XDATA, add(CFA_XSP16, literal(-24)))
          CFI (cfiCond19) VB load(1, XDATA, add(CFA_XSP16, literal(-23)))
          CFI (cfiCond19) V0 load(1, XDATA, add(CFA_XSP16, literal(-22)))
          CFI (cfiCond19) V1 load(1, XDATA, add(CFA_XSP16, literal(-21)))
          CFI (cfiCond19) V2 load(1, XDATA, add(CFA_XSP16, literal(-20)))
          CFI (cfiCond19) V3 load(1, XDATA, add(CFA_XSP16, literal(-19)))
          CFI (cfiCond19) V4 load(1, XDATA, add(CFA_XSP16, literal(-18)))
          CFI (cfiCond19) V5 load(1, XDATA, add(CFA_XSP16, literal(-17)))
          CFI (cfiCond19) V6 load(1, XDATA, add(CFA_XSP16, literal(-16)))
          CFI (cfiCond19) V7 load(1, XDATA, add(CFA_XSP16, literal(-15)))
          CFI (cfiCond19) V8 load(1, XDATA, add(CFA_XSP16, literal(-14)))
          CFI (cfiCond19) V9 load(1, XDATA, add(CFA_XSP16, literal(-13)))
          CFI (cfiCond19) V10 load(1, XDATA, add(CFA_XSP16, literal(-12)))
          CFI (cfiCond19) V11 load(1, XDATA, add(CFA_XSP16, literal(-11)))
          CFI (cfiCond19) V12 load(1, XDATA, add(CFA_XSP16, literal(-10)))
          CFI (cfiCond19) V13 load(1, XDATA, add(CFA_XSP16, literal(-9)))
          CFI (cfiCond19) V14 load(1, XDATA, add(CFA_XSP16, literal(-8)))
          CFI (cfiCond19) V15 load(1, XDATA, add(CFA_XSP16, literal(-7)))
          CFI (cfiCond19) R7 load(1, XDATA, add(CFA_XSP16, literal(-6)))
          CFI (cfiCond19) ?RET_LOW load(1, XDATA, add(CFA_XSP16, literal(-5)))
          CFI (cfiCond19) ?RET_HIGH load(1, XDATA, add(CFA_XSP16, literal(-4)))
          CFI (cfiCond19) ?BRET_EXT load(1, XDATA, add(CFA_XSP16, literal(-3)))
          CFI (cfiCond19) DPL0 load(1, XDATA, add(CFA_XSP16, literal(-2)))
          CFI (cfiCond19) DPH0 load(1, XDATA, add(CFA_XSP16, literal(-1)))
          CFI (cfiCond19) CFA_SP SP+-2
          CFI (cfiCond19) CFA_XSP16 add(XSP16, 25)
          CFI Block cfiPicker20 Using cfiCommon1
          CFI (cfiPicker20) NoFunction
          CFI (cfiPicker20) Picker
        MOV       R4,#-0x18
        MOV       R5,#0x3
        MOV       R2,#0x8
        MOV       R3,#0x0
        MOV       DPTR,#MT_TaskID
        MOVX      A,@DPTR
        MOV       R1,A
        LCALL     `??osal_start_timerEx::?relay`; Banked call to: osal_start_timerEx
        MOV       A,R1
        RET
          CFI EndBlock cfiCond17
          CFI EndBlock cfiCond18
          CFI EndBlock cfiCond19
          CFI EndBlock cfiPicker20

        RSEG BANKED_CODE:HUGECODE:NOROOT(0)
?Subroutine7:
          CFI Block cfiCond21 Using cfiCommon0
          CFI Function MT_AfDataRequest
          CFI Conditional ??CrossCallReturnLabel_54
          CFI R6 load(1, XDATA, add(CFA_XSP16, literal(-21)))
          CFI VB load(1, XDATA, add(CFA_XSP16, literal(-20)))
          CFI V0 load(1, XDATA, add(CFA_XSP16, literal(-19)))
          CFI V1 load(1, XDATA, add(CFA_XSP16, literal(-18)))
          CFI V2 load(1, XDATA, add(CFA_XSP16, literal(-17)))
          CFI V3 load(1, XDATA, add(CFA_XSP16, literal(-16)))
          CFI V4 load(1, XDATA, add(CFA_XSP16, literal(-15)))
          CFI V5 load(1, XDATA, add(CFA_XSP16, literal(-14)))
          CFI V6 load(1, XDATA, add(CFA_XSP16, literal(-13)))
          CFI V7 load(1, XDATA, add(CFA_XSP16, literal(-12)))
          CFI V8 load(1, XDATA, add(CFA_XSP16, literal(-11)))
          CFI V9 load(1, XDATA, add(CFA_XSP16, literal(-10)))
          CFI V10 load(1, XDATA, add(CFA_XSP16, literal(-9)))
          CFI V11 load(1, XDATA, add(CFA_XSP16, literal(-8)))
          CFI V12 load(1, XDATA, add(CFA_XSP16, literal(-7)))
          CFI R7 load(1, XDATA, add(CFA_XSP16, literal(-6)))
          CFI ?RET_LOW load(1, XDATA, add(CFA_XSP16, literal(-5)))
          CFI ?RET_HIGH load(1, XDATA, add(CFA_XSP16, literal(-4)))
          CFI ?BRET_EXT load(1, XDATA, add(CFA_XSP16, literal(-3)))
          CFI DPL0 load(1, XDATA, add(CFA_XSP16, literal(-2)))
          CFI DPH0 load(1, XDATA, add(CFA_XSP16, literal(-1)))
          CFI CFA_SP SP+-2
          CFI CFA_XSP16 add(XSP16, 35)
          CFI Block cfiCond22 Using cfiCommon0
          CFI (cfiCond22) Function MT_AfDataRequest
          CFI (cfiCond22) Conditional ??CrossCallReturnLabel_55
          CFI (cfiCond22) R6 load(1, XDATA, add(CFA_XSP16, literal(-21)))
          CFI (cfiCond22) VB load(1, XDATA, add(CFA_XSP16, literal(-20)))
          CFI (cfiCond22) V0 load(1, XDATA, add(CFA_XSP16, literal(-19)))
          CFI (cfiCond22) V1 load(1, XDATA, add(CFA_XSP16, literal(-18)))
          CFI (cfiCond22) V2 load(1, XDATA, add(CFA_XSP16, literal(-17)))
          CFI (cfiCond22) V3 load(1, XDATA, add(CFA_XSP16, literal(-16)))
          CFI (cfiCond22) V4 load(1, XDATA, add(CFA_XSP16, literal(-15)))
          CFI (cfiCond22) V5 load(1, XDATA, add(CFA_XSP16, literal(-14)))
          CFI (cfiCond22) V6 load(1, XDATA, add(CFA_XSP16, literal(-13)))
          CFI (cfiCond22) V7 load(1, XDATA, add(CFA_XSP16, literal(-12)))
          CFI (cfiCond22) V8 load(1, XDATA, add(CFA_XSP16, literal(-11)))
          CFI (cfiCond22) V9 load(1, XDATA, add(CFA_XSP16, literal(-10)))
          CFI (cfiCond22) V10 load(1, XDATA, add(CFA_XSP16, literal(-9)))
          CFI (cfiCond22) V11 load(1, XDATA, add(CFA_XSP16, literal(-8)))
          CFI (cfiCond22) V12 load(1, XDATA, add(CFA_XSP16, literal(-7)))
          CFI (cfiCond22) R7 load(1, XDATA, add(CFA_XSP16, literal(-6)))
          CFI (cfiCond22) ?RET_LOW load(1, XDATA, add(CFA_XSP16, literal(-5)))
          CFI (cfiCond22) ?RET_HIGH load(1, XDATA, add(CFA_XSP16, literal(-4)))
          CFI (cfiCond22) ?BRET_EXT load(1, XDATA, add(CFA_XSP16, literal(-3)))
          CFI (cfiCond22) DPL0 load(1, XDATA, add(CFA_XSP16, literal(-2)))
          CFI (cfiCond22) DPH0 load(1, XDATA, add(CFA_XSP16, literal(-1)))
          CFI (cfiCond22) CFA_SP SP+-2
          CFI (cfiCond22) CFA_XSP16 add(XSP16, 35)
          CFI Block cfiCond23 Using cfiCommon0
          CFI (cfiCond23) Function MT_AfDataRequest
          CFI (cfiCond23) Conditional ??CrossCallReturnLabel_56
          CFI (cfiCond23) R6 load(1, XDATA, add(CFA_XSP16, literal(-21)))
          CFI (cfiCond23) VB load(1, XDATA, add(CFA_XSP16, literal(-20)))
          CFI (cfiCond23) V0 load(1, XDATA, add(CFA_XSP16, literal(-19)))
          CFI (cfiCond23) V1 load(1, XDATA, add(CFA_XSP16, literal(-18)))
          CFI (cfiCond23) V2 load(1, XDATA, add(CFA_XSP16, literal(-17)))
          CFI (cfiCond23) V3 load(1, XDATA, add(CFA_XSP16, literal(-16)))
          CFI (cfiCond23) V4 load(1, XDATA, add(CFA_XSP16, literal(-15)))
          CFI (cfiCond23) V5 load(1, XDATA, add(CFA_XSP16, literal(-14)))
          CFI (cfiCond23) V6 load(1, XDATA, add(CFA_XSP16, literal(-13)))
          CFI (cfiCond23) V7 load(1, XDATA, add(CFA_XSP16, literal(-12)))
          CFI (cfiCond23) V8 load(1, XDATA, add(CFA_XSP16, literal(-11)))
          CFI (cfiCond23) V9 load(1, XDATA, add(CFA_XSP16, literal(-10)))
          CFI (cfiCond23) V10 load(1, XDATA, add(CFA_XSP16, literal(-9)))
          CFI (cfiCond23) V11 load(1, XDATA, add(CFA_XSP16, literal(-8)))
          CFI (cfiCond23) V12 load(1, XDATA, add(CFA_XSP16, literal(-7)))
          CFI (cfiCond23) R7 load(1, XDATA, add(CFA_XSP16, literal(-6)))
          CFI (cfiCond23) ?RET_LOW load(1, XDATA, add(CFA_XSP16, literal(-5)))
          CFI (cfiCond23) ?RET_HIGH load(1, XDATA, add(CFA_XSP16, literal(-4)))
          CFI (cfiCond23) ?BRET_EXT load(1, XDATA, add(CFA_XSP16, literal(-3)))
          CFI (cfiCond23) DPL0 load(1, XDATA, add(CFA_XSP16, literal(-2)))
          CFI (cfiCond23) DPH0 load(1, XDATA, add(CFA_XSP16, literal(-1)))
          CFI (cfiCond23) CFA_SP SP+-2
          CFI (cfiCond23) CFA_XSP16 add(XSP16, 35)
          CFI Block cfiCond24 Using cfiCommon0
          CFI (cfiCond24) Function MT_AfDataRequest
          CFI (cfiCond24) Conditional ??CrossCallReturnLabel_57
          CFI (cfiCond24) R6 load(1, XDATA, add(CFA_XSP16, literal(-21)))
          CFI (cfiCond24) VB load(1, XDATA, add(CFA_XSP16, literal(-20)))
          CFI (cfiCond24) V0 load(1, XDATA, add(CFA_XSP16, literal(-19)))
          CFI (cfiCond24) V1 load(1, XDATA, add(CFA_XSP16, literal(-18)))
          CFI (cfiCond24) V2 load(1, XDATA, add(CFA_XSP16, literal(-17)))
          CFI (cfiCond24) V3 load(1, XDATA, add(CFA_XSP16, literal(-16)))
          CFI (cfiCond24) V4 load(1, XDATA, add(CFA_XSP16, literal(-15)))
          CFI (cfiCond24) V5 load(1, XDATA, add(CFA_XSP16, literal(-14)))
          CFI (cfiCond24) V6 load(1, XDATA, add(CFA_XSP16, literal(-13)))
          CFI (cfiCond24) V7 load(1, XDATA, add(CFA_XSP16, literal(-12)))
          CFI (cfiCond24) V8 load(1, XDATA, add(CFA_XSP16, literal(-11)))
          CFI (cfiCond24) V9 load(1, XDATA, add(CFA_XSP16, literal(-10)))
          CFI (cfiCond24) V10 load(1, XDATA, add(CFA_XSP16, literal(-9)))
          CFI (cfiCond24) V11 load(1, XDATA, add(CFA_XSP16, literal(-8)))
          CFI (cfiCond24) V12 load(1, XDATA, add(CFA_XSP16, literal(-7)))
          CFI (cfiCond24) R7 load(1, XDATA, add(CFA_XSP16, literal(-6)))
          CFI (cfiCond24) ?RET_LOW load(1, XDATA, add(CFA_XSP16, literal(-5)))
          CFI (cfiCond24) ?RET_HIGH load(1, XDATA, add(CFA_XSP16, literal(-4)))
          CFI (cfiCond24) ?BRET_EXT load(1, XDATA, add(CFA_XSP16, literal(-3)))
          CFI (cfiCond24) DPL0 load(1, XDATA, add(CFA_XSP16, literal(-2)))
          CFI (cfiCond24) DPH0 load(1, XDATA, add(CFA_XSP16, literal(-1)))
          CFI (cfiCond24) CFA_SP SP+-2
          CFI (cfiCond24) CFA_XSP16 add(XSP16, 35)
          CFI Block cfiPicker25 Using cfiCommon1
          CFI (cfiPicker25) NoFunction
          CFI (cfiPicker25) Picker
        MOVX      @DPTR,A
          CFI EndBlock cfiCond21
          CFI EndBlock cfiCond22
          CFI EndBlock cfiCond23
          CFI EndBlock cfiCond24
          CFI EndBlock cfiPicker25
        REQUIRE ??Subroutine35_0
        ; // Fall through to label ??Subroutine35_0

        RSEG BANKED_CODE:HUGECODE:NOROOT(0)
??Subroutine35_0:
          CFI Block cfiCond26 Using cfiCommon0
          CFI Function MT_AfDataRequest
          CFI Conditional ??CrossCallReturnLabel_58
          CFI R6 load(1, XDATA, add(CFA_XSP16, literal(-21)))
          CFI VB load(1, XDATA, add(CFA_XSP16, literal(-20)))
          CFI V0 load(1, XDATA, add(CFA_XSP16, literal(-19)))
          CFI V1 load(1, XDATA, add(CFA_XSP16, literal(-18)))
          CFI V2 load(1, XDATA, add(CFA_XSP16, literal(-17)))
          CFI V3 load(1, XDATA, add(CFA_XSP16, literal(-16)))
          CFI V4 load(1, XDATA, add(CFA_XSP16, literal(-15)))
          CFI V5 load(1, XDATA, add(CFA_XSP16, literal(-14)))
          CFI V6 load(1, XDATA, add(CFA_XSP16, literal(-13)))
          CFI V7 load(1, XDATA, add(CFA_XSP16, literal(-12)))
          CFI V8 load(1, XDATA, add(CFA_XSP16, literal(-11)))
          CFI V9 load(1, XDATA, add(CFA_XSP16, literal(-10)))
          CFI V10 load(1, XDATA, add(CFA_XSP16, literal(-9)))
          CFI V11 load(1, XDATA, add(CFA_XSP16, literal(-8)))
          CFI V12 load(1, XDATA, add(CFA_XSP16, literal(-7)))
          CFI R7 load(1, XDATA, add(CFA_XSP16, literal(-6)))
          CFI ?RET_LOW load(1, XDATA, add(CFA_XSP16, literal(-5)))
          CFI ?RET_HIGH load(1, XDATA, add(CFA_XSP16, literal(-4)))
          CFI ?BRET_EXT load(1, XDATA, add(CFA_XSP16, literal(-3)))
          CFI DPL0 load(1, XDATA, add(CFA_XSP16, literal(-2)))
          CFI DPH0 load(1, XDATA, add(CFA_XSP16, literal(-1)))
          CFI CFA_SP SP+-2
          CFI CFA_XSP16 add(XSP16, 35)
          CFI Block cfiCond27 Using cfiCommon0
          CFI (cfiCond27) Function MT_AfDataRequest
          CFI (cfiCond27) Conditional ??CrossCallReturnLabel_59
          CFI (cfiCond27) R6 load(1, XDATA, add(CFA_XSP16, literal(-21)))
          CFI (cfiCond27) VB load(1, XDATA, add(CFA_XSP16, literal(-20)))
          CFI (cfiCond27) V0 load(1, XDATA, add(CFA_XSP16, literal(-19)))
          CFI (cfiCond27) V1 load(1, XDATA, add(CFA_XSP16, literal(-18)))
          CFI (cfiCond27) V2 load(1, XDATA, add(CFA_XSP16, literal(-17)))
          CFI (cfiCond27) V3 load(1, XDATA, add(CFA_XSP16, literal(-16)))
          CFI (cfiCond27) V4 load(1, XDATA, add(CFA_XSP16, literal(-15)))
          CFI (cfiCond27) V5 load(1, XDATA, add(CFA_XSP16, literal(-14)))
          CFI (cfiCond27) V6 load(1, XDATA, add(CFA_XSP16, literal(-13)))
          CFI (cfiCond27) V7 load(1, XDATA, add(CFA_XSP16, literal(-12)))
          CFI (cfiCond27) V8 load(1, XDATA, add(CFA_XSP16, literal(-11)))
          CFI (cfiCond27) V9 load(1, XDATA, add(CFA_XSP16, literal(-10)))
          CFI (cfiCond27) V10 load(1, XDATA, add(CFA_XSP16, literal(-9)))
          CFI (cfiCond27) V11 load(1, XDATA, add(CFA_XSP16, literal(-8)))
          CFI (cfiCond27) V12 load(1, XDATA, add(CFA_XSP16, literal(-7)))
          CFI (cfiCond27) R7 load(1, XDATA, add(CFA_XSP16, literal(-6)))
          CFI (cfiCond27) ?RET_LOW load(1, XDATA, add(CFA_XSP16, literal(-5)))
          CFI (cfiCond27) ?RET_HIGH load(1, XDATA, add(CFA_XSP16, literal(-4)))
          CFI (cfiCond27) ?BRET_EXT load(1, XDATA, add(CFA_XSP16, literal(-3)))
          CFI (cfiCond27) DPL0 load(1, XDATA, add(CFA_XSP16, literal(-2)))
          CFI (cfiCond27) DPH0 load(1, XDATA, add(CFA_XSP16, literal(-1)))
          CFI (cfiCond27) CFA_XSP16 add(XSP16, 35)
          CFI Block cfiCond28 Using cfiCommon0
          CFI (cfiCond28) Function MT_AfDataRequest
          CFI (cfiCond28) Conditional ??CrossCallReturnLabel_54
          CFI (cfiCond28) R6 load(1, XDATA, add(CFA_XSP16, literal(-21)))
          CFI (cfiCond28) VB load(1, XDATA, add(CFA_XSP16, literal(-20)))
          CFI (cfiCond28) V0 load(1, XDATA, add(CFA_XSP16, literal(-19)))
          CFI (cfiCond28) V1 load(1, XDATA, add(CFA_XSP16, literal(-18)))
          CFI (cfiCond28) V2 load(1, XDATA, add(CFA_XSP16, literal(-17)))
          CFI (cfiCond28) V3 load(1, XDATA, add(CFA_XSP16, literal(-16)))
          CFI (cfiCond28) V4 load(1, XDATA, add(CFA_XSP16, literal(-15)))
          CFI (cfiCond28) V5 load(1, XDATA, add(CFA_XSP16, literal(-14)))
          CFI (cfiCond28) V6 load(1, XDATA, add(CFA_XSP16, literal(-13)))
          CFI (cfiCond28) V7 load(1, XDATA, add(CFA_XSP16, literal(-12)))
          CFI (cfiCond28) V8 load(1, XDATA, add(CFA_XSP16, literal(-11)))
          CFI (cfiCond28) V9 load(1, XDATA, add(CFA_XSP16, literal(-10)))
          CFI (cfiCond28) V10 load(1, XDATA, add(CFA_XSP16, literal(-9)))
          CFI (cfiCond28) V11 load(1, XDATA, add(CFA_XSP16, literal(-8)))
          CFI (cfiCond28) V12 load(1, XDATA, add(CFA_XSP16, literal(-7)))
          CFI (cfiCond28) R7 load(1, XDATA, add(CFA_XSP16, literal(-6)))
          CFI (cfiCond28) ?RET_LOW load(1, XDATA, add(CFA_XSP16, literal(-5)))
          CFI (cfiCond28) ?RET_HIGH load(1, XDATA, add(CFA_XSP16, literal(-4)))
          CFI (cfiCond28) ?BRET_EXT load(1, XDATA, add(CFA_XSP16, literal(-3)))
          CFI (cfiCond28) DPL0 load(1, XDATA, add(CFA_XSP16, literal(-2)))
          CFI (cfiCond28) DPH0 load(1, XDATA, add(CFA_XSP16, literal(-1)))
          CFI (cfiCond28) CFA_SP SP+-2
          CFI (cfiCond28) CFA_XSP16 add(XSP16, 35)
          CFI Block cfiCond29 Using cfiCommon0
          CFI (cfiCond29) Function MT_AfDataRequest
          CFI (cfiCond29) Conditional ??CrossCallReturnLabel_55
          CFI (cfiCond29) R6 load(1, XDATA, add(CFA_XSP16, literal(-21)))
          CFI (cfiCond29) VB load(1, XDATA, add(CFA_XSP16, literal(-20)))
          CFI (cfiCond29) V0 load(1, XDATA, add(CFA_XSP16, literal(-19)))
          CFI (cfiCond29) V1 load(1, XDATA, add(CFA_XSP16, literal(-18)))
          CFI (cfiCond29) V2 load(1, XDATA, add(CFA_XSP16, literal(-17)))
          CFI (cfiCond29) V3 load(1, XDATA, add(CFA_XSP16, literal(-16)))
          CFI (cfiCond29) V4 load(1, XDATA, add(CFA_XSP16, literal(-15)))
          CFI (cfiCond29) V5 load(1, XDATA, add(CFA_XSP16, literal(-14)))
          CFI (cfiCond29) V6 load(1, XDATA, add(CFA_XSP16, literal(-13)))
          CFI (cfiCond29) V7 load(1, XDATA, add(CFA_XSP16, literal(-12)))
          CFI (cfiCond29) V8 load(1, XDATA, add(CFA_XSP16, literal(-11)))
          CFI (cfiCond29) V9 load(1, XDATA, add(CFA_XSP16, literal(-10)))
          CFI (cfiCond29) V10 load(1, XDATA, add(CFA_XSP16, literal(-9)))
          CFI (cfiCond29) V11 load(1, XDATA, add(CFA_XSP16, literal(-8)))
          CFI (cfiCond29) V12 load(1, XDATA, add(CFA_XSP16, literal(-7)))
          CFI (cfiCond29) R7 load(1, XDATA, add(CFA_XSP16, literal(-6)))
          CFI (cfiCond29) ?RET_LOW load(1, XDATA, add(CFA_XSP16, literal(-5)))
          CFI (cfiCond29) ?RET_HIGH load(1, XDATA, add(CFA_XSP16, literal(-4)))
          CFI (cfiCond29) ?BRET_EXT load(1, XDATA, add(CFA_XSP16, literal(-3)))
          CFI (cfiCond29) DPL0 load(1, XDATA, add(CFA_XSP16, literal(-2)))
          CFI (cfiCond29) DPH0 load(1, XDATA, add(CFA_XSP16, literal(-1)))
          CFI (cfiCond29) CFA_SP SP+-2
          CFI (cfiCond29) CFA_XSP16 add(XSP16, 35)
          CFI Block cfiCond30 Using cfiCommon0
          CFI (cfiCond30) Function MT_AfDataRequest
          CFI (cfiCond30) Conditional ??CrossCallReturnLabel_56
          CFI (cfiCond30) R6 load(1, XDATA, add(CFA_XSP16, literal(-21)))
          CFI (cfiCond30) VB load(1, XDATA, add(CFA_XSP16, literal(-20)))
          CFI (cfiCond30) V0 load(1, XDATA, add(CFA_XSP16, literal(-19)))
          CFI (cfiCond30) V1 load(1, XDATA, add(CFA_XSP16, literal(-18)))
          CFI (cfiCond30) V2 load(1, XDATA, add(CFA_XSP16, literal(-17)))
          CFI (cfiCond30) V3 load(1, XDATA, add(CFA_XSP16, literal(-16)))
          CFI (cfiCond30) V4 load(1, XDATA, add(CFA_XSP16, literal(-15)))
          CFI (cfiCond30) V5 load(1, XDATA, add(CFA_XSP16, literal(-14)))
          CFI (cfiCond30) V6 load(1, XDATA, add(CFA_XSP16, literal(-13)))
          CFI (cfiCond30) V7 load(1, XDATA, add(CFA_XSP16, literal(-12)))
          CFI (cfiCond30) V8 load(1, XDATA, add(CFA_XSP16, literal(-11)))
          CFI (cfiCond30) V9 load(1, XDATA, add(CFA_XSP16, literal(-10)))
          CFI (cfiCond30) V10 load(1, XDATA, add(CFA_XSP16, literal(-9)))
          CFI (cfiCond30) V11 load(1, XDATA, add(CFA_XSP16, literal(-8)))
          CFI (cfiCond30) V12 load(1, XDATA, add(CFA_XSP16, literal(-7)))
          CFI (cfiCond30) R7 load(1, XDATA, add(CFA_XSP16, literal(-6)))
          CFI (cfiCond30) ?RET_LOW load(1, XDATA, add(CFA_XSP16, literal(-5)))
          CFI (cfiCond30) ?RET_HIGH load(1, XDATA, add(CFA_XSP16, literal(-4)))
          CFI (cfiCond30) ?BRET_EXT load(1, XDATA, add(CFA_XSP16, literal(-3)))
          CFI (cfiCond30) DPL0 load(1, XDATA, add(CFA_XSP16, literal(-2)))
          CFI (cfiCond30) DPH0 load(1, XDATA, add(CFA_XSP16, literal(-1)))
          CFI (cfiCond30) CFA_SP SP+-2
          CFI (cfiCond30) CFA_XSP16 add(XSP16, 35)
          CFI Block cfiCond31 Using cfiCommon0
          CFI (cfiCond31) Function MT_AfDataRequest
          CFI (cfiCond31) Conditional ??CrossCallReturnLabel_57
          CFI (cfiCond31) R6 load(1, XDATA, add(CFA_XSP16, literal(-21)))
          CFI (cfiCond31) VB load(1, XDATA, add(CFA_XSP16, literal(-20)))
          CFI (cfiCond31) V0 load(1, XDATA, add(CFA_XSP16, literal(-19)))
          CFI (cfiCond31) V1 load(1, XDATA, add(CFA_XSP16, literal(-18)))
          CFI (cfiCond31) V2 load(1, XDATA, add(CFA_XSP16, literal(-17)))
          CFI (cfiCond31) V3 load(1, XDATA, add(CFA_XSP16, literal(-16)))
          CFI (cfiCond31) V4 load(1, XDATA, add(CFA_XSP16, literal(-15)))
          CFI (cfiCond31) V5 load(1, XDATA, add(CFA_XSP16, literal(-14)))
          CFI (cfiCond31) V6 load(1, XDATA, add(CFA_XSP16, literal(-13)))
          CFI (cfiCond31) V7 load(1, XDATA, add(CFA_XSP16, literal(-12)))
          CFI (cfiCond31) V8 load(1, XDATA, add(CFA_XSP16, literal(-11)))
          CFI (cfiCond31) V9 load(1, XDATA, add(CFA_XSP16, literal(-10)))
          CFI (cfiCond31) V10 load(1, XDATA, add(CFA_XSP16, literal(-9)))
          CFI (cfiCond31) V11 load(1, XDATA, add(CFA_XSP16, literal(-8)))
          CFI (cfiCond31) V12 load(1, XDATA, add(CFA_XSP16, literal(-7)))
          CFI (cfiCond31) R7 load(1, XDATA, add(CFA_XSP16, literal(-6)))
          CFI (cfiCond31) ?RET_LOW load(1, XDATA, add(CFA_XSP16, literal(-5)))
          CFI (cfiCond31) ?RET_HIGH load(1, XDATA, add(CFA_XSP16, literal(-4)))
          CFI (cfiCond31) ?BRET_EXT load(1, XDATA, add(CFA_XSP16, literal(-3)))
          CFI (cfiCond31) DPL0 load(1, XDATA, add(CFA_XSP16, literal(-2)))
          CFI (cfiCond31) DPH0 load(1, XDATA, add(CFA_XSP16, literal(-1)))
          CFI (cfiCond31) CFA_SP SP+-2
          CFI (cfiCond31) CFA_XSP16 add(XSP16, 35)
          CFI Block cfiPicker32 Using cfiCommon1
          CFI (cfiPicker32) NoFunction
          CFI (cfiPicker32) Picker
        MOV       DPTR,#pMtAfDataReq
        MOVX      A,@DPTR
        MOV       R0,A
        INC       DPTR
        MOVX      A,@DPTR
        XCH       A,R0
        RET
          CFI EndBlock cfiCond26
          CFI EndBlock cfiCond27
          CFI EndBlock cfiCond28
          CFI EndBlock cfiCond29
          CFI EndBlock cfiCond30
          CFI EndBlock cfiCond31
          CFI EndBlock cfiPicker32

        RSEG BANKED_CODE:HUGECODE:NOROOT(0)
?Subroutine6:
          CFI Block cfiCond33 Using cfiCommon0
          CFI Function MT_AfExec
          CFI Conditional ??CrossCallReturnLabel_5
          CFI R6 load(1, XDATA, add(CFA_XSP16, literal(-9)))
          CFI VB load(1, XDATA, add(CFA_XSP16, literal(-8)))
          CFI V0 load(1, XDATA, add(CFA_XSP16, literal(-7)))
          CFI R7 load(1, XDATA, add(CFA_XSP16, literal(-6)))
          CFI ?RET_LOW load(1, XDATA, add(CFA_XSP16, literal(-5)))
          CFI ?RET_HIGH load(1, XDATA, add(CFA_XSP16, literal(-4)))
          CFI ?BRET_EXT load(1, XDATA, add(CFA_XSP16, literal(-3)))
          CFI DPL0 load(1, XDATA, add(CFA_XSP16, literal(-2)))
          CFI DPH0 load(1, XDATA, add(CFA_XSP16, literal(-1)))
          CFI CFA_SP SP+-2
          CFI CFA_XSP16 add(XSP16, 9)
          CFI Block cfiCond34 Using cfiCommon0
          CFI (cfiCond34) Function MT_AfDataRequest
          CFI (cfiCond34) Conditional ??CrossCallReturnLabel_4
          CFI (cfiCond34) R6 load(1, XDATA, add(CFA_XSP16, literal(-21)))
          CFI (cfiCond34) VB load(1, XDATA, add(CFA_XSP16, literal(-20)))
          CFI (cfiCond34) V0 load(1, XDATA, add(CFA_XSP16, literal(-19)))
          CFI (cfiCond34) V1 load(1, XDATA, add(CFA_XSP16, literal(-18)))
          CFI (cfiCond34) V2 load(1, XDATA, add(CFA_XSP16, literal(-17)))
          CFI (cfiCond34) V3 load(1, XDATA, add(CFA_XSP16, literal(-16)))
          CFI (cfiCond34) V4 load(1, XDATA, add(CFA_XSP16, literal(-15)))
          CFI (cfiCond34) V5 load(1, XDATA, add(CFA_XSP16, literal(-14)))
          CFI (cfiCond34) V6 load(1, XDATA, add(CFA_XSP16, literal(-13)))
          CFI (cfiCond34) V7 load(1, XDATA, add(CFA_XSP16, literal(-12)))
          CFI (cfiCond34) V8 load(1, XDATA, add(CFA_XSP16, literal(-11)))
          CFI (cfiCond34) V9 load(1, XDATA, add(CFA_XSP16, literal(-10)))
          CFI (cfiCond34) V10 load(1, XDATA, add(CFA_XSP16, literal(-9)))
          CFI (cfiCond34) V11 load(1, XDATA, add(CFA_XSP16, literal(-8)))
          CFI (cfiCond34) V12 load(1, XDATA, add(CFA_XSP16, literal(-7)))
          CFI (cfiCond34) R7 load(1, XDATA, add(CFA_XSP16, literal(-6)))
          CFI (cfiCond34) ?RET_LOW load(1, XDATA, add(CFA_XSP16, literal(-5)))
          CFI (cfiCond34) ?RET_HIGH load(1, XDATA, add(CFA_XSP16, literal(-4)))
          CFI (cfiCond34) ?BRET_EXT load(1, XDATA, add(CFA_XSP16, literal(-3)))
          CFI (cfiCond34) DPL0 load(1, XDATA, add(CFA_XSP16, literal(-2)))
          CFI (cfiCond34) DPH0 load(1, XDATA, add(CFA_XSP16, literal(-1)))
          CFI (cfiCond34) CFA_SP SP+-2
          CFI (cfiCond34) CFA_XSP16 add(XSP16, 35)
          CFI Block cfiPicker35 Using cfiCommon1
          CFI (cfiPicker35) NoFunction
          CFI (cfiPicker35) Picker
        MOVX      @DPTR,A
        MOV       DPTR,#pMtAfDataReq
        MOVX      A,@DPTR
        MOV       R0,A
        INC       DPTR
        MOVX      A,@DPTR
        XCH       A,R0
        ADD       A,#0x17
        MOV       DPL,A
        CLR       A
        ADDC      A,R0
        MOV       DPH,A
        RET
          CFI EndBlock cfiCond33
          CFI EndBlock cfiCond34
          CFI EndBlock cfiPicker35

        RSEG BANKED_CODE:HUGECODE:NOROOT(0)
?Subroutine4:
          CFI Block cfiCond36 Using cfiCommon0
          CFI Function MT_AfExec
          CFI Conditional ??CrossCallReturnLabel_61
          CFI R6 load(1, XDATA, add(CFA_XSP16, literal(-9)))
          CFI VB load(1, XDATA, add(CFA_XSP16, literal(-8)))
          CFI V0 load(1, XDATA, add(CFA_XSP16, literal(-7)))
          CFI R7 load(1, XDATA, add(CFA_XSP16, literal(-6)))
          CFI ?RET_LOW load(1, XDATA, add(CFA_XSP16, literal(-5)))
          CFI ?RET_HIGH load(1, XDATA, add(CFA_XSP16, literal(-4)))
          CFI ?BRET_EXT load(1, XDATA, add(CFA_XSP16, literal(-3)))
          CFI DPL0 load(1, XDATA, add(CFA_XSP16, literal(-2)))
          CFI DPH0 load(1, XDATA, add(CFA_XSP16, literal(-1)))
          CFI CFA_SP SP+-2
          CFI CFA_XSP16 add(XSP16, 9)
          CFI Block cfiCond37 Using cfiCommon0
          CFI (cfiCond37) Function MT_AfExec
          CFI (cfiCond37) Conditional ??CrossCallReturnLabel_62
          CFI (cfiCond37) R6 load(1, XDATA, add(CFA_XSP16, literal(-9)))
          CFI (cfiCond37) VB load(1, XDATA, add(CFA_XSP16, literal(-8)))
          CFI (cfiCond37) V0 load(1, XDATA, add(CFA_XSP16, literal(-7)))
          CFI (cfiCond37) R7 load(1, XDATA, add(CFA_XSP16, literal(-6)))
          CFI (cfiCond37) ?RET_LOW load(1, XDATA, add(CFA_XSP16, literal(-5)))
          CFI (cfiCond37) ?RET_HIGH load(1, XDATA, add(CFA_XSP16, literal(-4)))
          CFI (cfiCond37) ?BRET_EXT load(1, XDATA, add(CFA_XSP16, literal(-3)))
          CFI (cfiCond37) DPL0 load(1, XDATA, add(CFA_XSP16, literal(-2)))
          CFI (cfiCond37) DPH0 load(1, XDATA, add(CFA_XSP16, literal(-1)))
          CFI (cfiCond37) CFA_SP SP+-2
          CFI (cfiCond37) CFA_XSP16 add(XSP16, 9)
          CFI Block cfiCond38 Using cfiCommon0
          CFI (cfiCond38) Function MT_AfDataRequest
          CFI (cfiCond38) Conditional ??CrossCallReturnLabel_63
          CFI (cfiCond38) R6 load(1, XDATA, add(CFA_XSP16, literal(-21)))
          CFI (cfiCond38) VB load(1, XDATA, add(CFA_XSP16, literal(-20)))
          CFI (cfiCond38) V0 load(1, XDATA, add(CFA_XSP16, literal(-19)))
          CFI (cfiCond38) V1 load(1, XDATA, add(CFA_XSP16, literal(-18)))
          CFI (cfiCond38) V2 load(1, XDATA, add(CFA_XSP16, literal(-17)))
          CFI (cfiCond38) V3 load(1, XDATA, add(CFA_XSP16, literal(-16)))
          CFI (cfiCond38) V4 load(1, XDATA, add(CFA_XSP16, literal(-15)))
          CFI (cfiCond38) V5 load(1, XDATA, add(CFA_XSP16, literal(-14)))
          CFI (cfiCond38) V6 load(1, XDATA, add(CFA_XSP16, literal(-13)))
          CFI (cfiCond38) V7 load(1, XDATA, add(CFA_XSP16, literal(-12)))
          CFI (cfiCond38) V8 load(1, XDATA, add(CFA_XSP16, literal(-11)))
          CFI (cfiCond38) V9 load(1, XDATA, add(CFA_XSP16, literal(-10)))
          CFI (cfiCond38) V10 load(1, XDATA, add(CFA_XSP16, literal(-9)))
          CFI (cfiCond38) V11 load(1, XDATA, add(CFA_XSP16, literal(-8)))
          CFI (cfiCond38) V12 load(1, XDATA, add(CFA_XSP16, literal(-7)))
          CFI (cfiCond38) R7 load(1, XDATA, add(CFA_XSP16, literal(-6)))
          CFI (cfiCond38) ?RET_LOW load(1, XDATA, add(CFA_XSP16, literal(-5)))
          CFI (cfiCond38) ?RET_HIGH load(1, XDATA, add(CFA_XSP16, literal(-4)))
          CFI (cfiCond38) ?BRET_EXT load(1, XDATA, add(CFA_XSP16, literal(-3)))
          CFI (cfiCond38) DPL0 load(1, XDATA, add(CFA_XSP16, literal(-2)))
          CFI (cfiCond38) DPH0 load(1, XDATA, add(CFA_XSP16, literal(-1)))
          CFI (cfiCond38) CFA_SP SP+-2
          CFI (cfiCond38) CFA_XSP16 add(XSP16, 35)
          CFI Block cfiCond39 Using cfiCommon0
          CFI (cfiCond39) Function MT_AfDataStore
          CFI (cfiCond39) Conditional ??CrossCallReturnLabel_64
          CFI (cfiCond39) R6 load(1, XDATA, add(CFA_XSP16, literal(-14)))
          CFI (cfiCond39) VB load(1, XDATA, add(CFA_XSP16, literal(-13)))
          CFI (cfiCond39) V0 load(1, XDATA, add(CFA_XSP16, literal(-12)))
          CFI (cfiCond39) V1 load(1, XDATA, add(CFA_XSP16, literal(-11)))
          CFI (cfiCond39) V2 load(1, XDATA, add(CFA_XSP16, literal(-10)))
          CFI (cfiCond39) V3 load(1, XDATA, add(CFA_XSP16, literal(-9)))
          CFI (cfiCond39) V4 load(1, XDATA, add(CFA_XSP16, literal(-8)))
          CFI (cfiCond39) V5 load(1, XDATA, add(CFA_XSP16, literal(-7)))
          CFI (cfiCond39) R7 load(1, XDATA, add(CFA_XSP16, literal(-6)))
          CFI (cfiCond39) ?RET_LOW load(1, XDATA, add(CFA_XSP16, literal(-5)))
          CFI (cfiCond39) ?RET_HIGH load(1, XDATA, add(CFA_XSP16, literal(-4)))
          CFI (cfiCond39) ?BRET_EXT load(1, XDATA, add(CFA_XSP16, literal(-3)))
          CFI (cfiCond39) DPL0 load(1, XDATA, add(CFA_XSP16, literal(-2)))
          CFI (cfiCond39) DPH0 load(1, XDATA, add(CFA_XSP16, literal(-1)))
          CFI (cfiCond39) CFA_SP SP+-2
          CFI (cfiCond39) CFA_XSP16 add(XSP16, 15)
          CFI Block cfiPicker40 Using cfiCommon1
          CFI (cfiPicker40) NoFunction
          CFI (cfiPicker40) Picker
        MOV       DPTR,#pMtAfDataReq
          CFI EndBlock cfiCond36
          CFI EndBlock cfiCond37
          CFI EndBlock cfiCond38
          CFI EndBlock cfiCond39
          CFI EndBlock cfiPicker40
        REQUIRE ??Subroutine36_0
        ; // Fall through to label ??Subroutine36_0

        RSEG BANKED_CODE:HUGECODE:NOROOT(0)
??Subroutine36_0:
          CFI Block cfiCond41 Using cfiCommon0
          CFI Function MT_AfExec
          CFI Conditional ??CrossCallReturnLabel_60
          CFI R6 load(1, XDATA, add(CFA_XSP16, literal(-9)))
          CFI VB load(1, XDATA, add(CFA_XSP16, literal(-8)))
          CFI V0 load(1, XDATA, add(CFA_XSP16, literal(-7)))
          CFI R7 load(1, XDATA, add(CFA_XSP16, literal(-6)))
          CFI ?RET_LOW load(1, XDATA, add(CFA_XSP16, literal(-5)))
          CFI ?RET_HIGH load(1, XDATA, add(CFA_XSP16, literal(-4)))
          CFI ?BRET_EXT load(1, XDATA, add(CFA_XSP16, literal(-3)))
          CFI DPL0 load(1, XDATA, add(CFA_XSP16, literal(-2)))
          CFI DPH0 load(1, XDATA, add(CFA_XSP16, literal(-1)))
          CFI CFA_SP SP+-2
          CFI CFA_XSP16 add(XSP16, 9)
          CFI Block cfiCond42 Using cfiCommon0
          CFI (cfiCond42) Function MT_AfExec
          CFI (cfiCond42) Conditional ??CrossCallReturnLabel_61
          CFI (cfiCond42) R6 load(1, XDATA, add(CFA_XSP16, literal(-9)))
          CFI (cfiCond42) VB load(1, XDATA, add(CFA_XSP16, literal(-8)))
          CFI (cfiCond42) V0 load(1, XDATA, add(CFA_XSP16, literal(-7)))
          CFI (cfiCond42) R7 load(1, XDATA, add(CFA_XSP16, literal(-6)))
          CFI (cfiCond42) ?RET_LOW load(1, XDATA, add(CFA_XSP16, literal(-5)))
          CFI (cfiCond42) ?RET_HIGH load(1, XDATA, add(CFA_XSP16, literal(-4)))
          CFI (cfiCond42) ?BRET_EXT load(1, XDATA, add(CFA_XSP16, literal(-3)))
          CFI (cfiCond42) DPL0 load(1, XDATA, add(CFA_XSP16, literal(-2)))
          CFI (cfiCond42) DPH0 load(1, XDATA, add(CFA_XSP16, literal(-1)))
          CFI (cfiCond42) CFA_SP SP+-2
          CFI (cfiCond42) CFA_XSP16 add(XSP16, 9)
          CFI Block cfiCond43 Using cfiCommon0
          CFI (cfiCond43) Function MT_AfExec
          CFI (cfiCond43) Conditional ??CrossCallReturnLabel_62
          CFI (cfiCond43) R6 load(1, XDATA, add(CFA_XSP16, literal(-9)))
          CFI (cfiCond43) VB load(1, XDATA, add(CFA_XSP16, literal(-8)))
          CFI (cfiCond43) V0 load(1, XDATA, add(CFA_XSP16, literal(-7)))
          CFI (cfiCond43) R7 load(1, XDATA, add(CFA_XSP16, literal(-6)))
          CFI (cfiCond43) ?RET_LOW load(1, XDATA, add(CFA_XSP16, literal(-5)))
          CFI (cfiCond43) ?RET_HIGH load(1, XDATA, add(CFA_XSP16, literal(-4)))
          CFI (cfiCond43) ?BRET_EXT load(1, XDATA, add(CFA_XSP16, literal(-3)))
          CFI (cfiCond43) DPL0 load(1, XDATA, add(CFA_XSP16, literal(-2)))
          CFI (cfiCond43) DPH0 load(1, XDATA, add(CFA_XSP16, literal(-1)))
          CFI (cfiCond43) CFA_SP SP+-2
          CFI (cfiCond43) CFA_XSP16 add(XSP16, 9)
          CFI Block cfiCond44 Using cfiCommon0
          CFI (cfiCond44) Function MT_AfDataRequest
          CFI (cfiCond44) Conditional ??CrossCallReturnLabel_63
          CFI (cfiCond44) R6 load(1, XDATA, add(CFA_XSP16, literal(-21)))
          CFI (cfiCond44) VB load(1, XDATA, add(CFA_XSP16, literal(-20)))
          CFI (cfiCond44) V0 load(1, XDATA, add(CFA_XSP16, literal(-19)))
          CFI (cfiCond44) V1 load(1, XDATA, add(CFA_XSP16, literal(-18)))
          CFI (cfiCond44) V2 load(1, XDATA, add(CFA_XSP16, literal(-17)))
          CFI (cfiCond44) V3 load(1, XDATA, add(CFA_XSP16, literal(-16)))
          CFI (cfiCond44) V4 load(1, XDATA, add(CFA_XSP16, literal(-15)))
          CFI (cfiCond44) V5 load(1, XDATA, add(CFA_XSP16, literal(-14)))
          CFI (cfiCond44) V6 load(1, XDATA, add(CFA_XSP16, literal(-13)))
          CFI (cfiCond44) V7 load(1, XDATA, add(CFA_XSP16, literal(-12)))
          CFI (cfiCond44) V8 load(1, XDATA, add(CFA_XSP16, literal(-11)))
          CFI (cfiCond44) V9 load(1, XDATA, add(CFA_XSP16, literal(-10)))
          CFI (cfiCond44) V10 load(1, XDATA, add(CFA_XSP16, literal(-9)))
          CFI (cfiCond44) V11 load(1, XDATA, add(CFA_XSP16, literal(-8)))
          CFI (cfiCond44) V12 load(1, XDATA, add(CFA_XSP16, literal(-7)))
          CFI (cfiCond44) R7 load(1, XDATA, add(CFA_XSP16, literal(-6)))
          CFI (cfiCond44) ?RET_LOW load(1, XDATA, add(CFA_XSP16, literal(-5)))
          CFI (cfiCond44) ?RET_HIGH load(1, XDATA, add(CFA_XSP16, literal(-4)))
          CFI (cfiCond44) ?BRET_EXT load(1, XDATA, add(CFA_XSP16, literal(-3)))
          CFI (cfiCond44) DPL0 load(1, XDATA, add(CFA_XSP16, literal(-2)))
          CFI (cfiCond44) DPH0 load(1, XDATA, add(CFA_XSP16, literal(-1)))
          CFI (cfiCond44) CFA_SP SP+-2
          CFI (cfiCond44) CFA_XSP16 add(XSP16, 35)
          CFI Block cfiCond45 Using cfiCommon0
          CFI (cfiCond45) Function MT_AfDataStore
          CFI (cfiCond45) Conditional ??CrossCallReturnLabel_64
          CFI (cfiCond45) R6 load(1, XDATA, add(CFA_XSP16, literal(-14)))
          CFI (cfiCond45) VB load(1, XDATA, add(CFA_XSP16, literal(-13)))
          CFI (cfiCond45) V0 load(1, XDATA, add(CFA_XSP16, literal(-12)))
          CFI (cfiCond45) V1 load(1, XDATA, add(CFA_XSP16, literal(-11)))
          CFI (cfiCond45) V2 load(1, XDATA, add(CFA_XSP16, literal(-10)))
          CFI (cfiCond45) V3 load(1, XDATA, add(CFA_XSP16, literal(-9)))
          CFI (cfiCond45) V4 load(1, XDATA, add(CFA_XSP16, literal(-8)))
          CFI (cfiCond45) V5 load(1, XDATA, add(CFA_XSP16, literal(-7)))
          CFI (cfiCond45) R7 load(1, XDATA, add(CFA_XSP16, literal(-6)))
          CFI (cfiCond45) ?RET_LOW load(1, XDATA, add(CFA_XSP16, literal(-5)))
          CFI (cfiCond45) ?RET_HIGH load(1, XDATA, add(CFA_XSP16, literal(-4)))
          CFI (cfiCond45) ?BRET_EXT load(1, XDATA, add(CFA_XSP16, literal(-3)))
          CFI (cfiCond45) DPL0 load(1, XDATA, add(CFA_XSP16, literal(-2)))
          CFI (cfiCond45) DPH0 load(1, XDATA, add(CFA_XSP16, literal(-1)))
          CFI (cfiCond45) CFA_SP SP+-2
          CFI (cfiCond45) CFA_XSP16 add(XSP16, 15)
          CFI Block cfiPicker46 Using cfiCommon1
          CFI (cfiPicker46) NoFunction
          CFI (cfiPicker46) Picker
        LCALL     ??Subroutine42_0 & 0xFFFF
??CrossCallReturnLabel_91:
        MOV       A,R0
        ORL       A,R1
        RET
          CFI EndBlock cfiCond41
          CFI EndBlock cfiCond42
          CFI EndBlock cfiCond43
          CFI EndBlock cfiCond44
          CFI EndBlock cfiCond45
          CFI EndBlock cfiPicker46
//  439 
//  440 #if defined ( ZIGBEE_SOURCE_ROUTING )
//  441 
//  442 /***************************************************************************************************
//  443  * @fn      MT_AfDataRequestSrcRtg
//  444  *
//  445  * @brief   Process AF Register command
//  446  *
//  447  * @param   pBuf - pointer to the received buffer
//  448  *
//  449  * @return  none
//  450  ***************************************************************************************************/

        RSEG BANKED_CODE:HUGECODE:NOROOT(0)
//  451 void MT_AfDataRequestSrcRtg(uint8 *pBuf)
MT_AfDataRequestSrcRtg:
          CFI Block cfiBlock47 Using cfiCommon0
          CFI Function MT_AfDataRequestSrcRtg
        CODE
//  452 {
        FUNCALL MT_AfDataRequestSrcRtg, osal_memset
        LOCFRAME ISTACK, 0, STACK
        LOCFRAME PSTACK, 0, STACK
        LOCFRAME XSTACK, 35, STACK
        LOCFRAME IOVERLAY, 0, STATIC
        LOCFRAME DOVERLAY, 0, STATIC
        ARGFRAME ISTACK, 0, STACK
        ARGFRAME PSTACK, 0, STACK
        ARGFRAME XSTACK, 35, STACK
        ARGFRAME IOVERLAY, 0, STATIC
        ARGFRAME DOVERLAY, 0, STATIC
        FUNCALL MT_AfDataRequestSrcRtg, afFindEndPointDesc
        LOCFRAME ISTACK, 0, STACK
        LOCFRAME PSTACK, 0, STACK
        LOCFRAME XSTACK, 35, STACK
        LOCFRAME IOVERLAY, 0, STATIC
        LOCFRAME DOVERLAY, 0, STATIC
        ARGFRAME ISTACK, 0, STACK
        ARGFRAME PSTACK, 0, STACK
        ARGFRAME XSTACK, 35, STACK
        ARGFRAME IOVERLAY, 0, STATIC
        ARGFRAME DOVERLAY, 0, STATIC
        FUNCALL MT_AfDataRequestSrcRtg, osal_mem_alloc
        LOCFRAME ISTACK, 0, STACK
        LOCFRAME PSTACK, 0, STACK
        LOCFRAME XSTACK, 35, STACK
        LOCFRAME IOVERLAY, 0, STATIC
        LOCFRAME DOVERLAY, 0, STATIC
        ARGFRAME ISTACK, 0, STACK
        ARGFRAME PSTACK, 0, STACK
        ARGFRAME XSTACK, 35, STACK
        ARGFRAME IOVERLAY, 0, STATIC
        ARGFRAME DOVERLAY, 0, STATIC
        FUNCALL MT_AfDataRequestSrcRtg, AF_DataRequestSrcRtg
        LOCFRAME ISTACK, 0, STACK
        LOCFRAME PSTACK, 0, STACK
        LOCFRAME XSTACK, 47, STACK
        LOCFRAME IOVERLAY, 0, STATIC
        LOCFRAME DOVERLAY, 0, STATIC
        ARGFRAME ISTACK, 0, STACK
        ARGFRAME PSTACK, 0, STACK
        ARGFRAME XSTACK, 47, STACK
        ARGFRAME IOVERLAY, 0, STATIC
        ARGFRAME DOVERLAY, 0, STATIC
        FUNCALL MT_AfDataRequestSrcRtg, osal_mem_free
        LOCFRAME ISTACK, 0, STACK
        LOCFRAME PSTACK, 0, STACK
        LOCFRAME XSTACK, 35, STACK
        LOCFRAME IOVERLAY, 0, STATIC
        LOCFRAME DOVERLAY, 0, STATIC
        ARGFRAME ISTACK, 0, STACK
        ARGFRAME PSTACK, 0, STACK
        ARGFRAME XSTACK, 35, STACK
        ARGFRAME IOVERLAY, 0, STATIC
        ARGFRAME DOVERLAY, 0, STATIC
        FUNCALL MT_AfDataRequestSrcRtg, MT_BuildAndSendZToolResponse
        LOCFRAME ISTACK, 0, STACK
        LOCFRAME PSTACK, 0, STACK
        LOCFRAME XSTACK, 35, STACK
        LOCFRAME IOVERLAY, 0, STATIC
        LOCFRAME DOVERLAY, 0, STATIC
        ARGFRAME ISTACK, 0, STACK
        ARGFRAME PSTACK, 0, STACK
        ARGFRAME XSTACK, 35, STACK
        ARGFRAME IOVERLAY, 0, STATIC
        ARGFRAME DOVERLAY, 0, STATIC
        REQUIRE ?V0
        REQUIRE ?V1
        REQUIRE ?V2
        REQUIRE ?V3
        REQUIRE ?V4
        REQUIRE ?V5
        REQUIRE ?V6
        REQUIRE ?V7
        REQUIRE ?V8
        REQUIRE ?V9
        REQUIRE ?V10
        REQUIRE ?V11
        REQUIRE ?V12
        MOV       A,#-0x15
        LCALL     ?BANKED_ENTER_XDATA
          CFI DPH0 load(1, XDATA, add(CFA_XSP16, literal(-1)))
          CFI DPL0 load(1, XDATA, add(CFA_XSP16, literal(-2)))
          CFI ?BRET_EXT load(1, XDATA, add(CFA_XSP16, literal(-3)))
          CFI ?RET_HIGH load(1, XDATA, add(CFA_XSP16, literal(-4)))
          CFI ?RET_LOW load(1, XDATA, add(CFA_XSP16, literal(-5)))
          CFI R7 load(1, XDATA, add(CFA_XSP16, literal(-6)))
          CFI V12 load(1, XDATA, add(CFA_XSP16, literal(-7)))
          CFI V11 load(1, XDATA, add(CFA_XSP16, literal(-8)))
          CFI V10 load(1, XDATA, add(CFA_XSP16, literal(-9)))
          CFI V9 load(1, XDATA, add(CFA_XSP16, literal(-10)))
          CFI V8 load(1, XDATA, add(CFA_XSP16, literal(-11)))
          CFI V7 load(1, XDATA, add(CFA_XSP16, literal(-12)))
          CFI V6 load(1, XDATA, add(CFA_XSP16, literal(-13)))
          CFI V5 load(1, XDATA, add(CFA_XSP16, literal(-14)))
          CFI V4 load(1, XDATA, add(CFA_XSP16, literal(-15)))
          CFI V3 load(1, XDATA, add(CFA_XSP16, literal(-16)))
          CFI V2 load(1, XDATA, add(CFA_XSP16, literal(-17)))
          CFI V1 load(1, XDATA, add(CFA_XSP16, literal(-18)))
          CFI V0 load(1, XDATA, add(CFA_XSP16, literal(-19)))
          CFI VB load(1, XDATA, add(CFA_XSP16, literal(-20)))
          CFI R6 load(1, XDATA, add(CFA_XSP16, literal(-21)))
          CFI CFA_SP SP+0
          CFI CFA_XSP16 add(XSP16, 21)
        ; Saved register size: 21
        ; Auto size: 14
        MOV       A,#-0xe
        LCALL     ?ALLOC_XSTACK8
          CFI CFA_XSP16 add(XSP16, 35)
        MOV       A,R3
        MOV       R7,A
//  453   uint8 cmdId, dataLen = 0;
//  454   uint8 retValue = ZFailure;
        MOV       DPL,?XSP + 0
        MOV       DPH,?XSP + 1
        MOV       A,#0x1
        LCALL     ?Subroutine23 & 0xFFFF
//  455   endPointDesc_t *epDesc;
//  456   byte transId;
//  457   afAddrType_t dstAddr;
//  458   cId_t cId;
//  459   byte txOpts, radius, srcEP, relayCnt;
//  460   uint16 *pRelayList;
//  461   uint8 i;
//  462 
//  463   /* parse header */
//  464   cmdId = pBuf[MT_RPC_POS_CMD1];
??CrossCallReturnLabel_33:
        MOV       ?V12,A
//  465   pBuf += MT_RPC_FRAME_HDR_SZ;
        MOV       A,R2
        ADD       A,#0x3
        MOV       R6,A
        JNC       ??MT_AfDataRequestSrcRtg_0
        INC       R7
//  466 
//  467   /* Destination address */
//  468   /* Initialize the panID field to zero to avoid inter-pan */
//  469   osal_memset( &dstAddr, 0, sizeof(afAddrType_t) ); 
??MT_AfDataRequestSrcRtg_0:
        ; Setup parameters for call to function osal_memset
        MOV       R4,#0xc
        MOV       R5,#0x0
        MOV       R1,#0x0
        MOV       A,#0x2
        LCALL     ?XSTACK_DISP101_8
        LCALL     `??osal_memset::?relay`; Banked call to: osal_memset
//  470   dstAddr.addrMode = afAddr16Bit;
        MOV       A,#0xa
        LCALL     ?XSTACK_DISP0_8
        LCALL     ?Subroutine26 & 0xFFFF
//  471   dstAddr.addr.shortAddr = BUILD_UINT16(pBuf[0], pBuf[1]);
??CrossCallReturnLabel_66:
        MOVX      A,@DPTR
        MOV       R2,A
        INC       DPTR
        MOVX      A,@DPTR
        MOV       R1,A
        MOV       A,#0x2
        LCALL     ?XSTACK_DISP0_8
        MOV       A,R2
        MOVX      @DPTR,A
        INC       DPTR
        MOV       A,R1
        LCALL     ??Subroutine37_0 & 0xFFFF
//  472   pBuf += 2;
//  473 
//  474   /* Destination endpoint */
//  475   dstAddr.endPoint = *pBuf++;
??CrossCallReturnLabel_68:
        INC       DPTR
        INC       DPTR
        MOVX      A,@DPTR
        PUSH      A
          CFI CFA_SP SP+-1
        MOV       A,#0xb
        LCALL     ?XSTACK_DISP0_8
        POP       A
          CFI CFA_SP SP+0
        LCALL     ?Subroutine25 & 0xFFFF
//  476 
//  477   /* Source endpoint */
//  478   srcEP = *pBuf++;
??CrossCallReturnLabel_39:
        MOV       R1,A
        MOV       A,R6
        ADD       A,#0x4
        MOV       R6,A
        JNC       ??MT_AfDataRequestSrcRtg_1
        INC       R7
//  479   epDesc = afFindEndPointDesc( srcEP );
??MT_AfDataRequestSrcRtg_1:
        ; Setup parameters for call to function afFindEndPointDesc
        LCALL     `??afFindEndPointDesc::?relay`; Banked call to: afFindEndPointDesc
        MOV       ?V2,R2
        MOV       ?V3,R3
//  480 
//  481   /* ClusterId */
//  482   cId = BUILD_UINT16(pBuf[0], pBuf[1]);
        MOV       DPL,R6
        LCALL     ?Subroutine3 & 0xFFFF
//  483   pBuf +=2;
//  484 
//  485   /* TransId */
//  486   transId = *pBuf++;
??CrossCallReturnLabel_0:
        PUSH      A
          CFI CFA_SP SP+-1
        MOV       A,#0x1
        LCALL     ?XSTACK_DISP0_8
        POP       A
          CFI CFA_SP SP+0
        LCALL     ?Subroutine25 & 0xFFFF
//  487 
//  488   /* TxOption */
//  489   txOpts = *pBuf++;
??CrossCallReturnLabel_40:
        MOV       ?V7,A
//  490 
//  491   /* Radius */
//  492   radius = *pBuf++;
        MOV       DPL,R6
        MOV       DPH,R7
        INC       DPTR
        LCALL     ?Subroutine9 & 0xFFFF
//  493   
//  494   /* Source route relay count */
//  495   relayCnt = *pBuf++;
??CrossCallReturnLabel_10:
        INC       DPTR
        MOVX      A,@DPTR
        MOV       ?V9,A
        MOV       A,R6
        ADD       A,#0x6
        MOV       R6,A
        JNC       ??MT_AfDataRequestSrcRtg_2
        INC       R7
//  496   
//  497   /* Convert the source route relay list */
//  498   if( (pRelayList = osal_mem_alloc( relayCnt * sizeof( uint16 ))) != NULL )
??MT_AfDataRequestSrcRtg_2:
        ; Setup parameters for call to function osal_mem_alloc
        MOV       R2,?V9
        MOV       A,R2
        ADD       A,R2
        MOV       R2,A
        CLR       A
        RLC       A
        MOV       R3,A
        LCALL     `??osal_mem_alloc::?relay`; Banked call to: osal_mem_alloc
        MOV       ?V0,R2
        MOV       ?V1,R3
        MOV       A,R2
        ORL       A,R3
        JNZ       $+5
        LJMP      ??MT_AfDataRequestSrcRtg_3 & 0xFFFF
//  499   {
//  500     for( i = 0; i < relayCnt; i++ )
        MOV       R2,#0x0
        SJMP      ??MT_AfDataRequestSrcRtg_4
//  501     {
//  502       pRelayList[i]  = BUILD_UINT16( pBuf[0], pBuf[1] );
??MT_AfDataRequestSrcRtg_5:
        MOV       A,R3
        MOV       R4,A
        LCALL     ?Subroutine11 & 0xFFFF
??CrossCallReturnLabel_95:
        MOV       A,R4
        ADD       A,R0
        CLR       A
        ADDC      A,R1
        MOV       R5,A
        MOV       A,R2
        ADD       A,0xE0 /* A   */
        MOV       R0,A
        CLR       A
        RLC       A
        MOV       R1,A
        MOV       A,?V0
        ADD       A,R0
        MOV       DPL,A
        MOV       A,?V1
        ADDC      A,R1
        MOV       DPH,A
        MOV       A,R4
        MOVX      @DPTR,A
        INC       DPTR
        MOV       A,R5
        MOVX      @DPTR,A
//  503       pBuf += 2;
        MOV       A,R6
        ADD       A,#0x2
        MOV       R6,A
        JNC       ??MT_AfDataRequestSrcRtg_6
        INC       R7
//  504     }
??MT_AfDataRequestSrcRtg_6:
        INC       R2
??MT_AfDataRequestSrcRtg_4:
        MOV       DPL,R6
        MOV       DPH,R7
        INC       DPTR
        MOV       R0,DPL
        MOV       R1,DPH
        MOV       DPL,R6
        MOV       DPH,R7
        MOVX      A,@DPTR
        MOV       R3,A
        MOV       A,R2
        CLR       C
        SUBB      A,?V9
        JC        ??MT_AfDataRequestSrcRtg_5
//  505   
//  506     /* Data payload Length */
//  507     dataLen = *pBuf++;
        MOV       A,R0
        MOV       R6,A
        MOV       A,R1
        MOV       R7,A
//  508 
//  509     if ( epDesc == NULL )
        MOV       A,?V2
        ORL       A,?V3
        JNZ       ??MT_AfDataRequestSrcRtg_7
//  510     {
//  511       retValue = afStatus_INVALID_PARAMETER;
        MOV       DPL,?XSP + 0
        MOV       DPH,?XSP + 1
        MOV       A,#0x2
        SJMP      ??MT_AfDataRequestSrcRtg_8
//  512     }
//  513     else
//  514     {
//  515       retValue = AF_DataRequestSrcRtg( &dstAddr, epDesc, cId, dataLen, pBuf, 
//  516                                      &transId, txOpts, radius, relayCnt, pRelayList );
??MT_AfDataRequestSrcRtg_7:
        ; Setup parameters for call to function AF_DataRequestSrcRtg
        MOV       R0,#?V0
        LCALL     ?PUSH_XSTACK_I_TWO
          CFI CFA_XSP16 add(XSP16, 37)
        MOV       R0,#?V9
        LCALL     ?PUSH_XSTACK_I_ONE
          CFI CFA_XSP16 add(XSP16, 38)
        MOV       R0,#?V8
        LCALL     ?PUSH_XSTACK_I_ONE
          CFI CFA_XSP16 add(XSP16, 39)
        MOV       A,#0x5
        LCALL     ?XSTACK_DISP100_8
        MOV       ?V8,R0
        MOV       ?V9,R1
        MOV       R0,#?V8
        LCALL     ?PUSH_XSTACK_I_TWO
          CFI CFA_XSP16 add(XSP16, 41)
        MOV       ?V8,R6
        MOV       ?V9,R7
        MOV       R0,#?V8
        LCALL     ?PUSH_XSTACK_I_TWO
          CFI CFA_XSP16 add(XSP16, 43)
        MOV       A,R3
        MOV       ?V8,A
        MOV       ?V9,#0x0
        MOV       R0,#?V8
        LCALL     ?PUSH_XSTACK_I_TWO
          CFI CFA_XSP16 add(XSP16, 45)
        MOV       R0,#?V4
        LCALL     ?PUSH_XSTACK_I_TWO
          CFI CFA_XSP16 add(XSP16, 47)
        MOV       R1,?V7
        MOV       R4,?V2
        MOV       R5,?V3
        MOV       A,#0xe
        LCALL     ?XSTACK_DISP101_8
        LCALL     `??AF_DataRequestSrcRtg::?relay`; Banked call to: AF_DataRequestSrcRtg
        MOV       A,#0xc
        LCALL     ?DEALLOC_XSTACK8
          CFI CFA_XSP16 add(XSP16, 35)
        MOV       A,R1
        MOV       DPL,?XSP + 0
        MOV       DPH,?XSP + 1
??MT_AfDataRequestSrcRtg_8:
        MOVX      @DPTR,A
//  517     }
//  518     
//  519     /* Free the memory allocated */
//  520     osal_mem_free( pRelayList );
        ; Setup parameters for call to function osal_mem_free
        MOV       R2,?V0
        MOV       R3,?V1
        LCALL     `??osal_mem_free::?relay`; Banked call to: osal_mem_free
        SJMP      ??MT_AfDataRequestSrcRtg_9
//  521   }
//  522   else
//  523   {
//  524     retValue = afStatus_MEM_FAIL;
??MT_AfDataRequestSrcRtg_3:
        MOV       DPL,?XSP + 0
        MOV       DPH,?XSP + 1
        MOV       A,#0x10
        MOVX      @DPTR,A
//  525   }
//  526     
//  527 
//  528   /* Build and send back the response */
//  529   MT_BuildAndSendZToolResponse(((uint8)MT_RPC_CMD_SRSP | (uint8)MT_RPC_SYS_AF), cmdId, 1, &retValue);
??MT_AfDataRequestSrcRtg_9:
        ; Setup parameters for call to function MT_BuildAndSendZToolResponse
        MOV       R4,?XSP + 0
        MOV       R5,?XSP + 1
        MOV       R3,#0x1
        MOV       R2,?V12
        MOV       R1,#0x64
        LCALL     `??MT_BuildAndSendZToolResponse::?relay`; Banked call to: MT_BuildAndSendZToolResponse
//  530 }
        LJMP      ?Subroutine2 & 0xFFFF
          CFI EndBlock cfiBlock47

        RSEG BANKED_CODE:HUGECODE:NOROOT(0)
?Subroutine26:
          CFI Block cfiCond48 Using cfiCommon0
          CFI Function MT_AfDataRequest
          CFI Conditional ??CrossCallReturnLabel_65
          CFI R6 load(1, XDATA, add(CFA_XSP16, literal(-21)))
          CFI VB load(1, XDATA, add(CFA_XSP16, literal(-20)))
          CFI V0 load(1, XDATA, add(CFA_XSP16, literal(-19)))
          CFI V1 load(1, XDATA, add(CFA_XSP16, literal(-18)))
          CFI V2 load(1, XDATA, add(CFA_XSP16, literal(-17)))
          CFI V3 load(1, XDATA, add(CFA_XSP16, literal(-16)))
          CFI V4 load(1, XDATA, add(CFA_XSP16, literal(-15)))
          CFI V5 load(1, XDATA, add(CFA_XSP16, literal(-14)))
          CFI V6 load(1, XDATA, add(CFA_XSP16, literal(-13)))
          CFI V7 load(1, XDATA, add(CFA_XSP16, literal(-12)))
          CFI V8 load(1, XDATA, add(CFA_XSP16, literal(-11)))
          CFI V9 load(1, XDATA, add(CFA_XSP16, literal(-10)))
          CFI V10 load(1, XDATA, add(CFA_XSP16, literal(-9)))
          CFI V11 load(1, XDATA, add(CFA_XSP16, literal(-8)))
          CFI V12 load(1, XDATA, add(CFA_XSP16, literal(-7)))
          CFI R7 load(1, XDATA, add(CFA_XSP16, literal(-6)))
          CFI ?RET_LOW load(1, XDATA, add(CFA_XSP16, literal(-5)))
          CFI ?RET_HIGH load(1, XDATA, add(CFA_XSP16, literal(-4)))
          CFI ?BRET_EXT load(1, XDATA, add(CFA_XSP16, literal(-3)))
          CFI DPL0 load(1, XDATA, add(CFA_XSP16, literal(-2)))
          CFI DPH0 load(1, XDATA, add(CFA_XSP16, literal(-1)))
          CFI CFA_SP SP+-2
          CFI CFA_XSP16 add(XSP16, 35)
          CFI Block cfiCond49 Using cfiCommon0
          CFI (cfiCond49) Function MT_AfDataRequestSrcRtg
          CFI (cfiCond49) Conditional ??CrossCallReturnLabel_66
          CFI (cfiCond49) R6 load(1, XDATA, add(CFA_XSP16, literal(-21)))
          CFI (cfiCond49) VB load(1, XDATA, add(CFA_XSP16, literal(-20)))
          CFI (cfiCond49) V0 load(1, XDATA, add(CFA_XSP16, literal(-19)))
          CFI (cfiCond49) V1 load(1, XDATA, add(CFA_XSP16, literal(-18)))
          CFI (cfiCond49) V2 load(1, XDATA, add(CFA_XSP16, literal(-17)))
          CFI (cfiCond49) V3 load(1, XDATA, add(CFA_XSP16, literal(-16)))
          CFI (cfiCond49) V4 load(1, XDATA, add(CFA_XSP16, literal(-15)))
          CFI (cfiCond49) V5 load(1, XDATA, add(CFA_XSP16, literal(-14)))
          CFI (cfiCond49) V6 load(1, XDATA, add(CFA_XSP16, literal(-13)))
          CFI (cfiCond49) V7 load(1, XDATA, add(CFA_XSP16, literal(-12)))
          CFI (cfiCond49) V8 load(1, XDATA, add(CFA_XSP16, literal(-11)))
          CFI (cfiCond49) V9 load(1, XDATA, add(CFA_XSP16, literal(-10)))
          CFI (cfiCond49) V10 load(1, XDATA, add(CFA_XSP16, literal(-9)))
          CFI (cfiCond49) V11 load(1, XDATA, add(CFA_XSP16, literal(-8)))
          CFI (cfiCond49) V12 load(1, XDATA, add(CFA_XSP16, literal(-7)))
          CFI (cfiCond49) R7 load(1, XDATA, add(CFA_XSP16, literal(-6)))
          CFI (cfiCond49) ?RET_LOW load(1, XDATA, add(CFA_XSP16, literal(-5)))
          CFI (cfiCond49) ?RET_HIGH load(1, XDATA, add(CFA_XSP16, literal(-4)))
          CFI (cfiCond49) ?BRET_EXT load(1, XDATA, add(CFA_XSP16, literal(-3)))
          CFI (cfiCond49) DPL0 load(1, XDATA, add(CFA_XSP16, literal(-2)))
          CFI (cfiCond49) DPH0 load(1, XDATA, add(CFA_XSP16, literal(-1)))
          CFI (cfiCond49) CFA_SP SP+-2
          CFI (cfiCond49) CFA_XSP16 add(XSP16, 35)
          CFI Block cfiPicker50 Using cfiCommon1
          CFI (cfiPicker50) NoFunction
          CFI (cfiPicker50) Picker
        MOV       A,#0x2
          CFI EndBlock cfiCond48
          CFI EndBlock cfiCond49
          CFI EndBlock cfiPicker50
        REQUIRE ??Subroutine37_0
        ; // Fall through to label ??Subroutine37_0

        RSEG BANKED_CODE:HUGECODE:NOROOT(0)
??Subroutine37_0:
          CFI Block cfiCond51 Using cfiCommon0
          CFI Function MT_AfDataRequest
          CFI Conditional ??CrossCallReturnLabel_67
          CFI R6 load(1, XDATA, add(CFA_XSP16, literal(-21)))
          CFI VB load(1, XDATA, add(CFA_XSP16, literal(-20)))
          CFI V0 load(1, XDATA, add(CFA_XSP16, literal(-19)))
          CFI V1 load(1, XDATA, add(CFA_XSP16, literal(-18)))
          CFI V2 load(1, XDATA, add(CFA_XSP16, literal(-17)))
          CFI V3 load(1, XDATA, add(CFA_XSP16, literal(-16)))
          CFI V4 load(1, XDATA, add(CFA_XSP16, literal(-15)))
          CFI V5 load(1, XDATA, add(CFA_XSP16, literal(-14)))
          CFI V6 load(1, XDATA, add(CFA_XSP16, literal(-13)))
          CFI V7 load(1, XDATA, add(CFA_XSP16, literal(-12)))
          CFI V8 load(1, XDATA, add(CFA_XSP16, literal(-11)))
          CFI V9 load(1, XDATA, add(CFA_XSP16, literal(-10)))
          CFI V10 load(1, XDATA, add(CFA_XSP16, literal(-9)))
          CFI V11 load(1, XDATA, add(CFA_XSP16, literal(-8)))
          CFI V12 load(1, XDATA, add(CFA_XSP16, literal(-7)))
          CFI R7 load(1, XDATA, add(CFA_XSP16, literal(-6)))
          CFI ?RET_LOW load(1, XDATA, add(CFA_XSP16, literal(-5)))
          CFI ?RET_HIGH load(1, XDATA, add(CFA_XSP16, literal(-4)))
          CFI ?BRET_EXT load(1, XDATA, add(CFA_XSP16, literal(-3)))
          CFI DPL0 load(1, XDATA, add(CFA_XSP16, literal(-2)))
          CFI DPH0 load(1, XDATA, add(CFA_XSP16, literal(-1)))
          CFI CFA_SP SP+-2
          CFI CFA_XSP16 add(XSP16, 35)
          CFI Block cfiCond52 Using cfiCommon0
          CFI (cfiCond52) Function MT_AfDataRequestSrcRtg
          CFI (cfiCond52) Conditional ??CrossCallReturnLabel_68
          CFI (cfiCond52) R6 load(1, XDATA, add(CFA_XSP16, literal(-21)))
          CFI (cfiCond52) VB load(1, XDATA, add(CFA_XSP16, literal(-20)))
          CFI (cfiCond52) V0 load(1, XDATA, add(CFA_XSP16, literal(-19)))
          CFI (cfiCond52) V1 load(1, XDATA, add(CFA_XSP16, literal(-18)))
          CFI (cfiCond52) V2 load(1, XDATA, add(CFA_XSP16, literal(-17)))
          CFI (cfiCond52) V3 load(1, XDATA, add(CFA_XSP16, literal(-16)))
          CFI (cfiCond52) V4 load(1, XDATA, add(CFA_XSP16, literal(-15)))
          CFI (cfiCond52) V5 load(1, XDATA, add(CFA_XSP16, literal(-14)))
          CFI (cfiCond52) V6 load(1, XDATA, add(CFA_XSP16, literal(-13)))
          CFI (cfiCond52) V7 load(1, XDATA, add(CFA_XSP16, literal(-12)))
          CFI (cfiCond52) V8 load(1, XDATA, add(CFA_XSP16, literal(-11)))
          CFI (cfiCond52) V9 load(1, XDATA, add(CFA_XSP16, literal(-10)))
          CFI (cfiCond52) V10 load(1, XDATA, add(CFA_XSP16, literal(-9)))
          CFI (cfiCond52) V11 load(1, XDATA, add(CFA_XSP16, literal(-8)))
          CFI (cfiCond52) V12 load(1, XDATA, add(CFA_XSP16, literal(-7)))
          CFI (cfiCond52) R7 load(1, XDATA, add(CFA_XSP16, literal(-6)))
          CFI (cfiCond52) ?RET_LOW load(1, XDATA, add(CFA_XSP16, literal(-5)))
          CFI (cfiCond52) ?RET_HIGH load(1, XDATA, add(CFA_XSP16, literal(-4)))
          CFI (cfiCond52) ?BRET_EXT load(1, XDATA, add(CFA_XSP16, literal(-3)))
          CFI (cfiCond52) DPL0 load(1, XDATA, add(CFA_XSP16, literal(-2)))
          CFI (cfiCond52) DPH0 load(1, XDATA, add(CFA_XSP16, literal(-1)))
          CFI (cfiCond52) CFA_SP SP+-2
          CFI (cfiCond52) CFA_XSP16 add(XSP16, 35)
          CFI Block cfiCond53 Using cfiCommon0
          CFI (cfiCond53) Function MT_AfDataRequest
          CFI (cfiCond53) Conditional ??CrossCallReturnLabel_65
          CFI (cfiCond53) R6 load(1, XDATA, add(CFA_XSP16, literal(-21)))
          CFI (cfiCond53) VB load(1, XDATA, add(CFA_XSP16, literal(-20)))
          CFI (cfiCond53) V0 load(1, XDATA, add(CFA_XSP16, literal(-19)))
          CFI (cfiCond53) V1 load(1, XDATA, add(CFA_XSP16, literal(-18)))
          CFI (cfiCond53) V2 load(1, XDATA, add(CFA_XSP16, literal(-17)))
          CFI (cfiCond53) V3 load(1, XDATA, add(CFA_XSP16, literal(-16)))
          CFI (cfiCond53) V4 load(1, XDATA, add(CFA_XSP16, literal(-15)))
          CFI (cfiCond53) V5 load(1, XDATA, add(CFA_XSP16, literal(-14)))
          CFI (cfiCond53) V6 load(1, XDATA, add(CFA_XSP16, literal(-13)))
          CFI (cfiCond53) V7 load(1, XDATA, add(CFA_XSP16, literal(-12)))
          CFI (cfiCond53) V8 load(1, XDATA, add(CFA_XSP16, literal(-11)))
          CFI (cfiCond53) V9 load(1, XDATA, add(CFA_XSP16, literal(-10)))
          CFI (cfiCond53) V10 load(1, XDATA, add(CFA_XSP16, literal(-9)))
          CFI (cfiCond53) V11 load(1, XDATA, add(CFA_XSP16, literal(-8)))
          CFI (cfiCond53) V12 load(1, XDATA, add(CFA_XSP16, literal(-7)))
          CFI (cfiCond53) R7 load(1, XDATA, add(CFA_XSP16, literal(-6)))
          CFI (cfiCond53) ?RET_LOW load(1, XDATA, add(CFA_XSP16, literal(-5)))
          CFI (cfiCond53) ?RET_HIGH load(1, XDATA, add(CFA_XSP16, literal(-4)))
          CFI (cfiCond53) ?BRET_EXT load(1, XDATA, add(CFA_XSP16, literal(-3)))
          CFI (cfiCond53) DPL0 load(1, XDATA, add(CFA_XSP16, literal(-2)))
          CFI (cfiCond53) DPH0 load(1, XDATA, add(CFA_XSP16, literal(-1)))
          CFI (cfiCond53) CFA_SP SP+-2
          CFI (cfiCond53) CFA_XSP16 add(XSP16, 35)
          CFI Block cfiCond54 Using cfiCommon0
          CFI (cfiCond54) Function MT_AfDataRequestSrcRtg
          CFI (cfiCond54) Conditional ??CrossCallReturnLabel_66
          CFI (cfiCond54) R6 load(1, XDATA, add(CFA_XSP16, literal(-21)))
          CFI (cfiCond54) VB load(1, XDATA, add(CFA_XSP16, literal(-20)))
          CFI (cfiCond54) V0 load(1, XDATA, add(CFA_XSP16, literal(-19)))
          CFI (cfiCond54) V1 load(1, XDATA, add(CFA_XSP16, literal(-18)))
          CFI (cfiCond54) V2 load(1, XDATA, add(CFA_XSP16, literal(-17)))
          CFI (cfiCond54) V3 load(1, XDATA, add(CFA_XSP16, literal(-16)))
          CFI (cfiCond54) V4 load(1, XDATA, add(CFA_XSP16, literal(-15)))
          CFI (cfiCond54) V5 load(1, XDATA, add(CFA_XSP16, literal(-14)))
          CFI (cfiCond54) V6 load(1, XDATA, add(CFA_XSP16, literal(-13)))
          CFI (cfiCond54) V7 load(1, XDATA, add(CFA_XSP16, literal(-12)))
          CFI (cfiCond54) V8 load(1, XDATA, add(CFA_XSP16, literal(-11)))
          CFI (cfiCond54) V9 load(1, XDATA, add(CFA_XSP16, literal(-10)))
          CFI (cfiCond54) V10 load(1, XDATA, add(CFA_XSP16, literal(-9)))
          CFI (cfiCond54) V11 load(1, XDATA, add(CFA_XSP16, literal(-8)))
          CFI (cfiCond54) V12 load(1, XDATA, add(CFA_XSP16, literal(-7)))
          CFI (cfiCond54) R7 load(1, XDATA, add(CFA_XSP16, literal(-6)))
          CFI (cfiCond54) ?RET_LOW load(1, XDATA, add(CFA_XSP16, literal(-5)))
          CFI (cfiCond54) ?RET_HIGH load(1, XDATA, add(CFA_XSP16, literal(-4)))
          CFI (cfiCond54) ?BRET_EXT load(1, XDATA, add(CFA_XSP16, literal(-3)))
          CFI (cfiCond54) DPL0 load(1, XDATA, add(CFA_XSP16, literal(-2)))
          CFI (cfiCond54) DPH0 load(1, XDATA, add(CFA_XSP16, literal(-1)))
          CFI (cfiCond54) CFA_SP SP+-2
          CFI (cfiCond54) CFA_XSP16 add(XSP16, 35)
          CFI Block cfiPicker55 Using cfiCommon1
          CFI (cfiPicker55) NoFunction
          CFI (cfiPicker55) Picker
        MOVX      @DPTR,A
        MOV       DPL,R6
        MOV       DPH,R7
        RET
          CFI EndBlock cfiCond51
          CFI EndBlock cfiCond52
          CFI EndBlock cfiCond53
          CFI EndBlock cfiCond54
          CFI EndBlock cfiPicker55

        RSEG BANKED_CODE:HUGECODE:NOROOT(0)
?Subroutine25:
          CFI Block cfiCond56 Using cfiCommon0
          CFI Function MT_AfDataRequestSrcRtg
          CFI Conditional ??CrossCallReturnLabel_39
          CFI R6 load(1, XDATA, add(CFA_XSP16, literal(-21)))
          CFI VB load(1, XDATA, add(CFA_XSP16, literal(-20)))
          CFI V0 load(1, XDATA, add(CFA_XSP16, literal(-19)))
          CFI V1 load(1, XDATA, add(CFA_XSP16, literal(-18)))
          CFI V2 load(1, XDATA, add(CFA_XSP16, literal(-17)))
          CFI V3 load(1, XDATA, add(CFA_XSP16, literal(-16)))
          CFI V4 load(1, XDATA, add(CFA_XSP16, literal(-15)))
          CFI V5 load(1, XDATA, add(CFA_XSP16, literal(-14)))
          CFI V6 load(1, XDATA, add(CFA_XSP16, literal(-13)))
          CFI V7 load(1, XDATA, add(CFA_XSP16, literal(-12)))
          CFI V8 load(1, XDATA, add(CFA_XSP16, literal(-11)))
          CFI V9 load(1, XDATA, add(CFA_XSP16, literal(-10)))
          CFI V10 load(1, XDATA, add(CFA_XSP16, literal(-9)))
          CFI V11 load(1, XDATA, add(CFA_XSP16, literal(-8)))
          CFI V12 load(1, XDATA, add(CFA_XSP16, literal(-7)))
          CFI R7 load(1, XDATA, add(CFA_XSP16, literal(-6)))
          CFI ?RET_LOW load(1, XDATA, add(CFA_XSP16, literal(-5)))
          CFI ?RET_HIGH load(1, XDATA, add(CFA_XSP16, literal(-4)))
          CFI ?BRET_EXT load(1, XDATA, add(CFA_XSP16, literal(-3)))
          CFI DPL0 load(1, XDATA, add(CFA_XSP16, literal(-2)))
          CFI DPH0 load(1, XDATA, add(CFA_XSP16, literal(-1)))
          CFI CFA_SP SP+-2
          CFI CFA_XSP16 add(XSP16, 35)
          CFI Block cfiCond57 Using cfiCommon0
          CFI (cfiCond57) Function MT_AfDataRequestSrcRtg
          CFI (cfiCond57) Conditional ??CrossCallReturnLabel_40
          CFI (cfiCond57) R6 load(1, XDATA, add(CFA_XSP16, literal(-21)))
          CFI (cfiCond57) VB load(1, XDATA, add(CFA_XSP16, literal(-20)))
          CFI (cfiCond57) V0 load(1, XDATA, add(CFA_XSP16, literal(-19)))
          CFI (cfiCond57) V1 load(1, XDATA, add(CFA_XSP16, literal(-18)))
          CFI (cfiCond57) V2 load(1, XDATA, add(CFA_XSP16, literal(-17)))
          CFI (cfiCond57) V3 load(1, XDATA, add(CFA_XSP16, literal(-16)))
          CFI (cfiCond57) V4 load(1, XDATA, add(CFA_XSP16, literal(-15)))
          CFI (cfiCond57) V5 load(1, XDATA, add(CFA_XSP16, literal(-14)))
          CFI (cfiCond57) V6 load(1, XDATA, add(CFA_XSP16, literal(-13)))
          CFI (cfiCond57) V7 load(1, XDATA, add(CFA_XSP16, literal(-12)))
          CFI (cfiCond57) V8 load(1, XDATA, add(CFA_XSP16, literal(-11)))
          CFI (cfiCond57) V9 load(1, XDATA, add(CFA_XSP16, literal(-10)))
          CFI (cfiCond57) V10 load(1, XDATA, add(CFA_XSP16, literal(-9)))
          CFI (cfiCond57) V11 load(1, XDATA, add(CFA_XSP16, literal(-8)))
          CFI (cfiCond57) V12 load(1, XDATA, add(CFA_XSP16, literal(-7)))
          CFI (cfiCond57) R7 load(1, XDATA, add(CFA_XSP16, literal(-6)))
          CFI (cfiCond57) ?RET_LOW load(1, XDATA, add(CFA_XSP16, literal(-5)))
          CFI (cfiCond57) ?RET_HIGH load(1, XDATA, add(CFA_XSP16, literal(-4)))
          CFI (cfiCond57) ?BRET_EXT load(1, XDATA, add(CFA_XSP16, literal(-3)))
          CFI (cfiCond57) DPL0 load(1, XDATA, add(CFA_XSP16, literal(-2)))
          CFI (cfiCond57) DPH0 load(1, XDATA, add(CFA_XSP16, literal(-1)))
          CFI (cfiCond57) CFA_SP SP+-2
          CFI (cfiCond57) CFA_XSP16 add(XSP16, 35)
          CFI Block cfiPicker58 Using cfiCommon1
          CFI (cfiPicker58) NoFunction
          CFI (cfiPicker58) Picker
        MOVX      @DPTR,A
        MOV       DPL,R6
        MOV       DPH,R7
        INC       DPTR
        INC       DPTR
        INC       DPTR
        MOVX      A,@DPTR
        RET
          CFI EndBlock cfiCond56
          CFI EndBlock cfiCond57
          CFI EndBlock cfiPicker58

        RSEG BANKED_CODE:HUGECODE:NOROOT(0)
?Subroutine23:
          CFI Block cfiCond59 Using cfiCommon0
          CFI Function MT_AfRegister
          CFI Conditional ??CrossCallReturnLabel_32
          CFI R6 load(1, XDATA, add(CFA_XSP16, literal(-14)))
          CFI VB load(1, XDATA, add(CFA_XSP16, literal(-13)))
          CFI V0 load(1, XDATA, add(CFA_XSP16, literal(-12)))
          CFI V1 load(1, XDATA, add(CFA_XSP16, literal(-11)))
          CFI V2 load(1, XDATA, add(CFA_XSP16, literal(-10)))
          CFI V3 load(1, XDATA, add(CFA_XSP16, literal(-9)))
          CFI V4 load(1, XDATA, add(CFA_XSP16, literal(-8)))
          CFI V5 load(1, XDATA, add(CFA_XSP16, literal(-7)))
          CFI R7 load(1, XDATA, add(CFA_XSP16, literal(-6)))
          CFI ?RET_LOW load(1, XDATA, add(CFA_XSP16, literal(-5)))
          CFI ?RET_HIGH load(1, XDATA, add(CFA_XSP16, literal(-4)))
          CFI ?BRET_EXT load(1, XDATA, add(CFA_XSP16, literal(-3)))
          CFI DPL0 load(1, XDATA, add(CFA_XSP16, literal(-2)))
          CFI DPH0 load(1, XDATA, add(CFA_XSP16, literal(-1)))
          CFI CFA_SP SP+-2
          CFI CFA_XSP16 add(XSP16, 15)
          CFI Block cfiCond60 Using cfiCommon0
          CFI (cfiCond60) Function MT_AfDataRequestSrcRtg
          CFI (cfiCond60) Conditional ??CrossCallReturnLabel_33
          CFI (cfiCond60) R6 load(1, XDATA, add(CFA_XSP16, literal(-21)))
          CFI (cfiCond60) VB load(1, XDATA, add(CFA_XSP16, literal(-20)))
          CFI (cfiCond60) V0 load(1, XDATA, add(CFA_XSP16, literal(-19)))
          CFI (cfiCond60) V1 load(1, XDATA, add(CFA_XSP16, literal(-18)))
          CFI (cfiCond60) V2 load(1, XDATA, add(CFA_XSP16, literal(-17)))
          CFI (cfiCond60) V3 load(1, XDATA, add(CFA_XSP16, literal(-16)))
          CFI (cfiCond60) V4 load(1, XDATA, add(CFA_XSP16, literal(-15)))
          CFI (cfiCond60) V5 load(1, XDATA, add(CFA_XSP16, literal(-14)))
          CFI (cfiCond60) V6 load(1, XDATA, add(CFA_XSP16, literal(-13)))
          CFI (cfiCond60) V7 load(1, XDATA, add(CFA_XSP16, literal(-12)))
          CFI (cfiCond60) V8 load(1, XDATA, add(CFA_XSP16, literal(-11)))
          CFI (cfiCond60) V9 load(1, XDATA, add(CFA_XSP16, literal(-10)))
          CFI (cfiCond60) V10 load(1, XDATA, add(CFA_XSP16, literal(-9)))
          CFI (cfiCond60) V11 load(1, XDATA, add(CFA_XSP16, literal(-8)))
          CFI (cfiCond60) V12 load(1, XDATA, add(CFA_XSP16, literal(-7)))
          CFI (cfiCond60) R7 load(1, XDATA, add(CFA_XSP16, literal(-6)))
          CFI (cfiCond60) ?RET_LOW load(1, XDATA, add(CFA_XSP16, literal(-5)))
          CFI (cfiCond60) ?RET_HIGH load(1, XDATA, add(CFA_XSP16, literal(-4)))
          CFI (cfiCond60) ?BRET_EXT load(1, XDATA, add(CFA_XSP16, literal(-3)))
          CFI (cfiCond60) DPL0 load(1, XDATA, add(CFA_XSP16, literal(-2)))
          CFI (cfiCond60) DPH0 load(1, XDATA, add(CFA_XSP16, literal(-1)))
          CFI (cfiCond60) CFA_SP SP+-2
          CFI (cfiCond60) CFA_XSP16 add(XSP16, 35)
          CFI Block cfiCond61 Using cfiCommon0
          CFI (cfiCond61) Function MT_AfDataConfirm
          CFI (cfiCond61) Conditional ??CrossCallReturnLabel_34
          CFI (cfiCond61) DPL0 Frame(CFA_SP, 4)
          CFI (cfiCond61) DPH0 Frame(CFA_SP, 5)
          CFI (cfiCond61) CFA_SP SP+-7
          CFI (cfiCond61) CFA_XSP16 add(XSP16, 3)
          CFI Block cfiPicker62 Using cfiCommon1
          CFI (cfiPicker62) NoFunction
          CFI (cfiPicker62) Picker
        MOVX      @DPTR,A
        MOV       DPL,R2
        MOV       DPH,R3
        INC       DPTR
        INC       DPTR
        MOVX      A,@DPTR
        RET
          CFI EndBlock cfiCond59
          CFI EndBlock cfiCond60
          CFI EndBlock cfiCond61
          CFI EndBlock cfiPicker62

        RSEG BANKED_CODE:HUGECODE:NOROOT(0)
?Subroutine9:
          CFI Block cfiCond63 Using cfiCommon0
          CFI Function MT_AfDataRequest
          CFI Conditional ??CrossCallReturnLabel_9
          CFI R6 load(1, XDATA, add(CFA_XSP16, literal(-21)))
          CFI VB load(1, XDATA, add(CFA_XSP16, literal(-20)))
          CFI V0 load(1, XDATA, add(CFA_XSP16, literal(-19)))
          CFI V1 load(1, XDATA, add(CFA_XSP16, literal(-18)))
          CFI V2 load(1, XDATA, add(CFA_XSP16, literal(-17)))
          CFI V3 load(1, XDATA, add(CFA_XSP16, literal(-16)))
          CFI V4 load(1, XDATA, add(CFA_XSP16, literal(-15)))
          CFI V5 load(1, XDATA, add(CFA_XSP16, literal(-14)))
          CFI V6 load(1, XDATA, add(CFA_XSP16, literal(-13)))
          CFI V7 load(1, XDATA, add(CFA_XSP16, literal(-12)))
          CFI V8 load(1, XDATA, add(CFA_XSP16, literal(-11)))
          CFI V9 load(1, XDATA, add(CFA_XSP16, literal(-10)))
          CFI V10 load(1, XDATA, add(CFA_XSP16, literal(-9)))
          CFI V11 load(1, XDATA, add(CFA_XSP16, literal(-8)))
          CFI V12 load(1, XDATA, add(CFA_XSP16, literal(-7)))
          CFI R7 load(1, XDATA, add(CFA_XSP16, literal(-6)))
          CFI ?RET_LOW load(1, XDATA, add(CFA_XSP16, literal(-5)))
          CFI ?RET_HIGH load(1, XDATA, add(CFA_XSP16, literal(-4)))
          CFI ?BRET_EXT load(1, XDATA, add(CFA_XSP16, literal(-3)))
          CFI DPL0 load(1, XDATA, add(CFA_XSP16, literal(-2)))
          CFI DPH0 load(1, XDATA, add(CFA_XSP16, literal(-1)))
          CFI CFA_SP SP+-2
          CFI CFA_XSP16 add(XSP16, 35)
          CFI Block cfiCond64 Using cfiCommon0
          CFI (cfiCond64) Function MT_AfDataRequestSrcRtg
          CFI (cfiCond64) Conditional ??CrossCallReturnLabel_10
          CFI (cfiCond64) R6 load(1, XDATA, add(CFA_XSP16, literal(-21)))
          CFI (cfiCond64) VB load(1, XDATA, add(CFA_XSP16, literal(-20)))
          CFI (cfiCond64) V0 load(1, XDATA, add(CFA_XSP16, literal(-19)))
          CFI (cfiCond64) V1 load(1, XDATA, add(CFA_XSP16, literal(-18)))
          CFI (cfiCond64) V2 load(1, XDATA, add(CFA_XSP16, literal(-17)))
          CFI (cfiCond64) V3 load(1, XDATA, add(CFA_XSP16, literal(-16)))
          CFI (cfiCond64) V4 load(1, XDATA, add(CFA_XSP16, literal(-15)))
          CFI (cfiCond64) V5 load(1, XDATA, add(CFA_XSP16, literal(-14)))
          CFI (cfiCond64) V6 load(1, XDATA, add(CFA_XSP16, literal(-13)))
          CFI (cfiCond64) V7 load(1, XDATA, add(CFA_XSP16, literal(-12)))
          CFI (cfiCond64) V8 load(1, XDATA, add(CFA_XSP16, literal(-11)))
          CFI (cfiCond64) V9 load(1, XDATA, add(CFA_XSP16, literal(-10)))
          CFI (cfiCond64) V10 load(1, XDATA, add(CFA_XSP16, literal(-9)))
          CFI (cfiCond64) V11 load(1, XDATA, add(CFA_XSP16, literal(-8)))
          CFI (cfiCond64) V12 load(1, XDATA, add(CFA_XSP16, literal(-7)))
          CFI (cfiCond64) R7 load(1, XDATA, add(CFA_XSP16, literal(-6)))
          CFI (cfiCond64) ?RET_LOW load(1, XDATA, add(CFA_XSP16, literal(-5)))
          CFI (cfiCond64) ?RET_HIGH load(1, XDATA, add(CFA_XSP16, literal(-4)))
          CFI (cfiCond64) ?BRET_EXT load(1, XDATA, add(CFA_XSP16, literal(-3)))
          CFI (cfiCond64) DPL0 load(1, XDATA, add(CFA_XSP16, literal(-2)))
          CFI (cfiCond64) DPH0 load(1, XDATA, add(CFA_XSP16, literal(-1)))
          CFI (cfiCond64) CFA_SP SP+-2
          CFI (cfiCond64) CFA_XSP16 add(XSP16, 35)
          CFI Block cfiPicker65 Using cfiCommon1
          CFI (cfiPicker65) NoFunction
          CFI (cfiPicker65) Picker
        INC       DPTR
        INC       DPTR
        INC       DPTR
        MOVX      A,@DPTR
        MOV       ?V8,A
        MOV       DPL,R6
        MOV       DPH,R7
        INC       DPTR
        INC       DPTR
        INC       DPTR
        INC       DPTR
        RET
          CFI EndBlock cfiCond63
          CFI EndBlock cfiCond64
          CFI EndBlock cfiPicker65
//  531 #endif
//  532 
//  533 #if defined INTER_PAN
//  534 /***************************************************************************************************
//  535  * @fn      MT_AfInterPanCtl
//  536  *
//  537  * @brief   Process the AF Inter Pan control command.
//  538  *
//  539  * @param   pBuf - pointer to the received buffer
//  540  *
//  541  * @return  none
//  542  ***************************************************************************************************/
//  543 static void MT_AfInterPanCtl(uint8 *pBuf)
//  544 {
//  545   uint8 cmd, rtrn;
//  546   uint16 panId;
//  547   endPointDesc_t *pEP;
//  548   
//  549   cmd = pBuf[MT_RPC_POS_CMD1];
//  550   pBuf += MT_RPC_FRAME_HDR_SZ;
//  551 
//  552   switch (*pBuf++)  // Inter-pan request parameter.
//  553   {
//  554   case InterPanClr:
//  555     rtrn = StubAPS_SetIntraPanChannel();           // Switch channel back to the NIB channel.
//  556     break;
//  557 
//  558   case InterPanSet:
//  559     rtrn = StubAPS_SetInterPanChannel(*pBuf);      // Set channel for inter-pan communication.
//  560     break;
//  561 
//  562   case InterPanReg:
//  563     if ((pEP = afFindEndPointDesc(*pBuf)))
//  564     {
//  565       StubAPS_RegisterApp(pEP);
//  566       rtrn = SUCCESS;
//  567     }
//  568     else
//  569     {
//  570       rtrn = FAILURE;
//  571     }
//  572     break;
//  573 
//  574   case InterPanChk:
//  575     panId = BUILD_UINT16(pBuf[0], pBuf[1]);
//  576     rtrn = (StubAPS_InterPan(panId, pBuf[2])) ? ZSuccess : ZFailure;
//  577     break;
//  578 
//  579   default:
//  580     rtrn = afStatus_INVALID_PARAMETER;
//  581     break;
//  582   }
//  583 
//  584   MT_BuildAndSendZToolResponse(((uint8)MT_RPC_CMD_SRSP | (uint8)MT_RPC_SYS_AF), cmd, 1, &rtrn);
//  585 }
//  586 #endif
//  587 
//  588 /***************************************************************************************************
//  589  * @fn      MT_AfDataConfirm
//  590  *
//  591  * @brief   Process
//  592  *
//  593  * @param   pBuf - pointer to the received buffer
//  594  *
//  595  * @return  none
//  596  ***************************************************************************************************/

        RSEG BANKED_CODE:HUGECODE:NOROOT(0)
//  597 void MT_AfDataConfirm(afDataConfirm_t *pMsg)
MT_AfDataConfirm:
          CFI Block cfiBlock66 Using cfiCommon0
          CFI Function MT_AfDataConfirm
        CODE
//  598 {
        FUNCALL MT_AfDataConfirm, MT_BuildAndSendZToolResponse
        LOCFRAME ISTACK, 2, STACK
        LOCFRAME PSTACK, 0, STACK
        LOCFRAME XSTACK, 3, STACK
        LOCFRAME IOVERLAY, 0, STATIC
        LOCFRAME DOVERLAY, 0, STATIC
        ARGFRAME ISTACK, 2, STACK
        ARGFRAME PSTACK, 0, STACK
        ARGFRAME XSTACK, 3, STACK
        ARGFRAME IOVERLAY, 0, STATIC
        ARGFRAME DOVERLAY, 0, STATIC
        PUSH      DPL
          CFI DPL0 Frame(CFA_SP, 4)
          CFI CFA_SP SP+-4
        PUSH      DPH
          CFI DPH0 Frame(CFA_SP, 5)
          CFI CFA_SP SP+-5
        ; Saved register size: 2
        ; Auto size: 3
        MOV       A,#-0x3
        LCALL     ?ALLOC_XSTACK8
          CFI CFA_XSP16 add(XSP16, 3)
//  599   uint8 retArray[3];
//  600 
//  601   retArray[0] = pMsg->hdr.status;
        MOV       DPL,R2
        MOV       DPH,R3
        INC       DPTR
        MOVX      A,@DPTR
        MOV       DPL,?XSP + 0
        MOV       DPH,?XSP + 1
        LCALL     ?Subroutine23 & 0xFFFF
//  602   retArray[1] = pMsg->endpoint;
??CrossCallReturnLabel_34:
        PUSH      A
          CFI CFA_SP SP+-6
        MOV       A,#0x1
        LCALL     ?XSTACK_DISP0_8
        POP       A
          CFI CFA_SP SP+-5
        LCALL     ?Subroutine24 & 0xFFFF
//  603   retArray[2] = pMsg->transID;
??CrossCallReturnLabel_37:
        INC       DPTR
        INC       DPTR
        INC       DPTR
        MOVX      A,@DPTR
        PUSH      A
          CFI CFA_SP SP+-6
        MOV       A,#0x2
        LCALL     ?XSTACK_DISP0_8
        POP       A
          CFI CFA_SP SP+-5
        MOVX      @DPTR,A
//  604 
//  605   /* Build and send back the response */
//  606   MT_BuildAndSendZToolResponse(((uint8)MT_RPC_CMD_AREQ | (uint8)MT_RPC_SYS_AF), MT_AF_DATA_CONFIRM, 3, retArray);
        ; Setup parameters for call to function MT_BuildAndSendZToolResponse
        MOV       R4,?XSP + 0
        MOV       R5,?XSP + 1
        MOV       R3,#0x3
        MOV       R2,#-0x80
        MOV       R1,#0x44
        LCALL     `??MT_BuildAndSendZToolResponse::?relay`; Banked call to: MT_BuildAndSendZToolResponse
//  607 }
        MOV       A,#0x3
        LCALL     ?DEALLOC_XSTACK8
          CFI CFA_XSP16 XSP16+0
        POP       DPH
          CFI DPH0 SameValue
          CFI CFA_SP SP+-4
        POP       DPL
          CFI DPL0 SameValue
          CFI CFA_SP SP+-3
        LJMP      ?BRET
          CFI EndBlock cfiBlock66

        RSEG BANKED_CODE:HUGECODE:NOROOT(0)
?Subroutine24:
          CFI Block cfiCond67 Using cfiCommon0
          CFI Function MT_AfDataRequest
          CFI Conditional ??CrossCallReturnLabel_35
          CFI R6 load(1, XDATA, add(CFA_XSP16, literal(-21)))
          CFI VB load(1, XDATA, add(CFA_XSP16, literal(-20)))
          CFI V0 load(1, XDATA, add(CFA_XSP16, literal(-19)))
          CFI V1 load(1, XDATA, add(CFA_XSP16, literal(-18)))
          CFI V2 load(1, XDATA, add(CFA_XSP16, literal(-17)))
          CFI V3 load(1, XDATA, add(CFA_XSP16, literal(-16)))
          CFI V4 load(1, XDATA, add(CFA_XSP16, literal(-15)))
          CFI V5 load(1, XDATA, add(CFA_XSP16, literal(-14)))
          CFI V6 load(1, XDATA, add(CFA_XSP16, literal(-13)))
          CFI V7 load(1, XDATA, add(CFA_XSP16, literal(-12)))
          CFI V8 load(1, XDATA, add(CFA_XSP16, literal(-11)))
          CFI V9 load(1, XDATA, add(CFA_XSP16, literal(-10)))
          CFI V10 load(1, XDATA, add(CFA_XSP16, literal(-9)))
          CFI V11 load(1, XDATA, add(CFA_XSP16, literal(-8)))
          CFI V12 load(1, XDATA, add(CFA_XSP16, literal(-7)))
          CFI R7 load(1, XDATA, add(CFA_XSP16, literal(-6)))
          CFI ?RET_LOW load(1, XDATA, add(CFA_XSP16, literal(-5)))
          CFI ?RET_HIGH load(1, XDATA, add(CFA_XSP16, literal(-4)))
          CFI ?BRET_EXT load(1, XDATA, add(CFA_XSP16, literal(-3)))
          CFI DPL0 load(1, XDATA, add(CFA_XSP16, literal(-2)))
          CFI DPH0 load(1, XDATA, add(CFA_XSP16, literal(-1)))
          CFI CFA_SP SP+-2
          CFI CFA_XSP16 add(XSP16, 35)
          CFI Block cfiCond68 Using cfiCommon0
          CFI (cfiCond68) Function MT_AfDataRequest
          CFI (cfiCond68) Conditional ??CrossCallReturnLabel_36
          CFI (cfiCond68) R6 load(1, XDATA, add(CFA_XSP16, literal(-21)))
          CFI (cfiCond68) VB load(1, XDATA, add(CFA_XSP16, literal(-20)))
          CFI (cfiCond68) V0 load(1, XDATA, add(CFA_XSP16, literal(-19)))
          CFI (cfiCond68) V1 load(1, XDATA, add(CFA_XSP16, literal(-18)))
          CFI (cfiCond68) V2 load(1, XDATA, add(CFA_XSP16, literal(-17)))
          CFI (cfiCond68) V3 load(1, XDATA, add(CFA_XSP16, literal(-16)))
          CFI (cfiCond68) V4 load(1, XDATA, add(CFA_XSP16, literal(-15)))
          CFI (cfiCond68) V5 load(1, XDATA, add(CFA_XSP16, literal(-14)))
          CFI (cfiCond68) V6 load(1, XDATA, add(CFA_XSP16, literal(-13)))
          CFI (cfiCond68) V7 load(1, XDATA, add(CFA_XSP16, literal(-12)))
          CFI (cfiCond68) V8 load(1, XDATA, add(CFA_XSP16, literal(-11)))
          CFI (cfiCond68) V9 load(1, XDATA, add(CFA_XSP16, literal(-10)))
          CFI (cfiCond68) V10 load(1, XDATA, add(CFA_XSP16, literal(-9)))
          CFI (cfiCond68) V11 load(1, XDATA, add(CFA_XSP16, literal(-8)))
          CFI (cfiCond68) V12 load(1, XDATA, add(CFA_XSP16, literal(-7)))
          CFI (cfiCond68) R7 load(1, XDATA, add(CFA_XSP16, literal(-6)))
          CFI (cfiCond68) ?RET_LOW load(1, XDATA, add(CFA_XSP16, literal(-5)))
          CFI (cfiCond68) ?RET_HIGH load(1, XDATA, add(CFA_XSP16, literal(-4)))
          CFI (cfiCond68) ?BRET_EXT load(1, XDATA, add(CFA_XSP16, literal(-3)))
          CFI (cfiCond68) DPL0 load(1, XDATA, add(CFA_XSP16, literal(-2)))
          CFI (cfiCond68) DPH0 load(1, XDATA, add(CFA_XSP16, literal(-1)))
          CFI (cfiCond68) CFA_SP SP+-2
          CFI (cfiCond68) CFA_XSP16 add(XSP16, 35)
          CFI Block cfiCond69 Using cfiCommon0
          CFI (cfiCond69) Function MT_AfDataConfirm
          CFI (cfiCond69) Conditional ??CrossCallReturnLabel_37
          CFI (cfiCond69) DPL0 Frame(CFA_SP, 4)
          CFI (cfiCond69) DPH0 Frame(CFA_SP, 5)
          CFI (cfiCond69) CFA_SP SP+-7
          CFI (cfiCond69) CFA_XSP16 add(XSP16, 3)
          CFI Block cfiCond70 Using cfiCommon0
          CFI (cfiCond70) Function MT_AfIncomingMsg
          CFI (cfiCond70) Conditional ??CrossCallReturnLabel_38
          CFI (cfiCond70) R6 load(1, XDATA, add(CFA_XSP16, literal(-24)))
          CFI (cfiCond70) VB load(1, XDATA, add(CFA_XSP16, literal(-23)))
          CFI (cfiCond70) V0 load(1, XDATA, add(CFA_XSP16, literal(-22)))
          CFI (cfiCond70) V1 load(1, XDATA, add(CFA_XSP16, literal(-21)))
          CFI (cfiCond70) V2 load(1, XDATA, add(CFA_XSP16, literal(-20)))
          CFI (cfiCond70) V3 load(1, XDATA, add(CFA_XSP16, literal(-19)))
          CFI (cfiCond70) V4 load(1, XDATA, add(CFA_XSP16, literal(-18)))
          CFI (cfiCond70) V5 load(1, XDATA, add(CFA_XSP16, literal(-17)))
          CFI (cfiCond70) V6 load(1, XDATA, add(CFA_XSP16, literal(-16)))
          CFI (cfiCond70) V7 load(1, XDATA, add(CFA_XSP16, literal(-15)))
          CFI (cfiCond70) V8 load(1, XDATA, add(CFA_XSP16, literal(-14)))
          CFI (cfiCond70) V9 load(1, XDATA, add(CFA_XSP16, literal(-13)))
          CFI (cfiCond70) V10 load(1, XDATA, add(CFA_XSP16, literal(-12)))
          CFI (cfiCond70) V11 load(1, XDATA, add(CFA_XSP16, literal(-11)))
          CFI (cfiCond70) V12 load(1, XDATA, add(CFA_XSP16, literal(-10)))
          CFI (cfiCond70) V13 load(1, XDATA, add(CFA_XSP16, literal(-9)))
          CFI (cfiCond70) V14 load(1, XDATA, add(CFA_XSP16, literal(-8)))
          CFI (cfiCond70) V15 load(1, XDATA, add(CFA_XSP16, literal(-7)))
          CFI (cfiCond70) R7 load(1, XDATA, add(CFA_XSP16, literal(-6)))
          CFI (cfiCond70) ?RET_LOW load(1, XDATA, add(CFA_XSP16, literal(-5)))
          CFI (cfiCond70) ?RET_HIGH load(1, XDATA, add(CFA_XSP16, literal(-4)))
          CFI (cfiCond70) ?BRET_EXT load(1, XDATA, add(CFA_XSP16, literal(-3)))
          CFI (cfiCond70) DPL0 load(1, XDATA, add(CFA_XSP16, literal(-2)))
          CFI (cfiCond70) DPH0 load(1, XDATA, add(CFA_XSP16, literal(-1)))
          CFI (cfiCond70) CFA_SP SP+-2
          CFI (cfiCond70) CFA_XSP16 add(XSP16, 25)
          CFI Block cfiPicker71 Using cfiCommon1
          CFI (cfiPicker71) NoFunction
          CFI (cfiPicker71) Picker
        MOVX      @DPTR,A
        MOV       DPL,R2
        MOV       DPH,R3
        RET
          CFI EndBlock cfiCond67
          CFI EndBlock cfiCond68
          CFI EndBlock cfiCond69
          CFI EndBlock cfiCond70
          CFI EndBlock cfiPicker71
//  608 
//  609 /***************************************************************************************************
//  610  * @fn          MT_AfIncomingMsg
//  611  *
//  612  * @brief       Process the callback subscription for AF Incoming data.
//  613  *
//  614  * @param       pkt - Incoming AF data.
//  615  *
//  616  * @return      none
//  617  ***************************************************************************************************/

        RSEG BANKED_CODE:HUGECODE:NOROOT(0)
//  618 void MT_AfIncomingMsg(afIncomingMSGPacket_t *pMsg)
MT_AfIncomingMsg:
          CFI Block cfiBlock72 Using cfiCommon0
          CFI Function MT_AfIncomingMsg
        CODE
//  619 {
        FUNCALL MT_AfIncomingMsg, osal_mem_alloc
        LOCFRAME ISTACK, 0, STACK
        LOCFRAME PSTACK, 0, STACK
        LOCFRAME XSTACK, 25, STACK
        LOCFRAME IOVERLAY, 0, STATIC
        LOCFRAME DOVERLAY, 0, STATIC
        ARGFRAME ISTACK, 0, STACK
        ARGFRAME PSTACK, 0, STACK
        ARGFRAME XSTACK, 25, STACK
        ARGFRAME IOVERLAY, 0, STATIC
        ARGFRAME DOVERLAY, 0, STATIC
        FUNCALL MT_AfIncomingMsg, osal_mem_alloc
        LOCFRAME ISTACK, 0, STACK
        LOCFRAME PSTACK, 0, STACK
        LOCFRAME XSTACK, 25, STACK
        LOCFRAME IOVERLAY, 0, STATIC
        LOCFRAME DOVERLAY, 0, STATIC
        ARGFRAME ISTACK, 0, STACK
        ARGFRAME PSTACK, 0, STACK
        ARGFRAME XSTACK, 25, STACK
        ARGFRAME IOVERLAY, 0, STATIC
        ARGFRAME DOVERLAY, 0, STATIC
        FUNCALL MT_AfIncomingMsg, osal_mem_free
        LOCFRAME ISTACK, 0, STACK
        LOCFRAME PSTACK, 0, STACK
        LOCFRAME XSTACK, 25, STACK
        LOCFRAME IOVERLAY, 0, STATIC
        LOCFRAME DOVERLAY, 0, STATIC
        ARGFRAME ISTACK, 0, STACK
        ARGFRAME PSTACK, 0, STACK
        ARGFRAME XSTACK, 25, STACK
        ARGFRAME IOVERLAY, 0, STATIC
        ARGFRAME DOVERLAY, 0, STATIC
        FUNCALL MT_AfIncomingMsg, osal_memcpy
        LOCFRAME ISTACK, 0, STACK
        LOCFRAME PSTACK, 0, STACK
        LOCFRAME XSTACK, 28, STACK
        LOCFRAME IOVERLAY, 0, STATIC
        LOCFRAME DOVERLAY, 0, STATIC
        ARGFRAME ISTACK, 0, STACK
        ARGFRAME PSTACK, 0, STACK
        ARGFRAME XSTACK, 28, STACK
        ARGFRAME IOVERLAY, 0, STATIC
        ARGFRAME DOVERLAY, 0, STATIC
        FUNCALL MT_AfIncomingMsg, osal_start_timerEx
        LOCFRAME ISTACK, 0, STACK
        LOCFRAME PSTACK, 0, STACK
        LOCFRAME XSTACK, 25, STACK
        LOCFRAME IOVERLAY, 0, STATIC
        LOCFRAME DOVERLAY, 0, STATIC
        ARGFRAME ISTACK, 0, STACK
        ARGFRAME PSTACK, 0, STACK
        ARGFRAME XSTACK, 25, STACK
        ARGFRAME IOVERLAY, 0, STATIC
        ARGFRAME DOVERLAY, 0, STATIC
        FUNCALL MT_AfIncomingMsg, osal_set_event
        LOCFRAME ISTACK, 0, STACK
        LOCFRAME PSTACK, 0, STACK
        LOCFRAME XSTACK, 25, STACK
        LOCFRAME IOVERLAY, 0, STATIC
        LOCFRAME DOVERLAY, 0, STATIC
        ARGFRAME ISTACK, 0, STACK
        ARGFRAME PSTACK, 0, STACK
        ARGFRAME XSTACK, 25, STACK
        ARGFRAME IOVERLAY, 0, STATIC
        ARGFRAME DOVERLAY, 0, STATIC
        FUNCALL MT_AfIncomingMsg, osal_memcpy
        LOCFRAME ISTACK, 0, STACK
        LOCFRAME PSTACK, 0, STACK
        LOCFRAME XSTACK, 28, STACK
        LOCFRAME IOVERLAY, 0, STATIC
        LOCFRAME DOVERLAY, 0, STATIC
        ARGFRAME ISTACK, 0, STACK
        ARGFRAME PSTACK, 0, STACK
        ARGFRAME XSTACK, 28, STACK
        ARGFRAME IOVERLAY, 0, STATIC
        ARGFRAME DOVERLAY, 0, STATIC
        FUNCALL MT_AfIncomingMsg, osal_memcpy
        LOCFRAME ISTACK, 0, STACK
        LOCFRAME PSTACK, 0, STACK
        LOCFRAME XSTACK, 28, STACK
        LOCFRAME IOVERLAY, 0, STATIC
        LOCFRAME DOVERLAY, 0, STATIC
        ARGFRAME ISTACK, 0, STACK
        ARGFRAME PSTACK, 0, STACK
        ARGFRAME XSTACK, 28, STACK
        ARGFRAME IOVERLAY, 0, STATIC
        ARGFRAME DOVERLAY, 0, STATIC
        FUNCALL MT_AfIncomingMsg, MT_BuildAndSendZToolResponse
        LOCFRAME ISTACK, 0, STACK
        LOCFRAME PSTACK, 0, STACK
        LOCFRAME XSTACK, 25, STACK
        LOCFRAME IOVERLAY, 0, STATIC
        LOCFRAME DOVERLAY, 0, STATIC
        ARGFRAME ISTACK, 0, STACK
        ARGFRAME PSTACK, 0, STACK
        ARGFRAME XSTACK, 25, STACK
        ARGFRAME IOVERLAY, 0, STATIC
        ARGFRAME DOVERLAY, 0, STATIC
        FUNCALL MT_AfIncomingMsg, osal_mem_free
        LOCFRAME ISTACK, 0, STACK
        LOCFRAME PSTACK, 0, STACK
        LOCFRAME XSTACK, 25, STACK
        LOCFRAME IOVERLAY, 0, STATIC
        LOCFRAME DOVERLAY, 0, STATIC
        ARGFRAME ISTACK, 0, STACK
        ARGFRAME PSTACK, 0, STACK
        ARGFRAME XSTACK, 25, STACK
        ARGFRAME IOVERLAY, 0, STATIC
        ARGFRAME DOVERLAY, 0, STATIC
        REQUIRE ?V0
        REQUIRE ?V1
        REQUIRE ?V2
        REQUIRE ?V3
        REQUIRE ?V4
        REQUIRE ?V5
        REQUIRE ?V6
        REQUIRE ?V7
        REQUIRE ?V8
        REQUIRE ?V9
        REQUIRE ?V10
        REQUIRE ?V11
        REQUIRE ?V12
        REQUIRE ?V13
        REQUIRE ?V14
        REQUIRE ?V15
        MOV       A,#-0x18
        LCALL     ?BANKED_ENTER_XDATA
          CFI DPH0 load(1, XDATA, add(CFA_XSP16, literal(-1)))
          CFI DPL0 load(1, XDATA, add(CFA_XSP16, literal(-2)))
          CFI ?BRET_EXT load(1, XDATA, add(CFA_XSP16, literal(-3)))
          CFI ?RET_HIGH load(1, XDATA, add(CFA_XSP16, literal(-4)))
          CFI ?RET_LOW load(1, XDATA, add(CFA_XSP16, literal(-5)))
          CFI R7 load(1, XDATA, add(CFA_XSP16, literal(-6)))
          CFI V15 load(1, XDATA, add(CFA_XSP16, literal(-7)))
          CFI V14 load(1, XDATA, add(CFA_XSP16, literal(-8)))
          CFI V13 load(1, XDATA, add(CFA_XSP16, literal(-9)))
          CFI V12 load(1, XDATA, add(CFA_XSP16, literal(-10)))
          CFI V11 load(1, XDATA, add(CFA_XSP16, literal(-11)))
          CFI V10 load(1, XDATA, add(CFA_XSP16, literal(-12)))
          CFI V9 load(1, XDATA, add(CFA_XSP16, literal(-13)))
          CFI V8 load(1, XDATA, add(CFA_XSP16, literal(-14)))
          CFI V7 load(1, XDATA, add(CFA_XSP16, literal(-15)))
          CFI V6 load(1, XDATA, add(CFA_XSP16, literal(-16)))
          CFI V5 load(1, XDATA, add(CFA_XSP16, literal(-17)))
          CFI V4 load(1, XDATA, add(CFA_XSP16, literal(-18)))
          CFI V3 load(1, XDATA, add(CFA_XSP16, literal(-19)))
          CFI V2 load(1, XDATA, add(CFA_XSP16, literal(-20)))
          CFI V1 load(1, XDATA, add(CFA_XSP16, literal(-21)))
          CFI V0 load(1, XDATA, add(CFA_XSP16, literal(-22)))
          CFI VB load(1, XDATA, add(CFA_XSP16, literal(-23)))
          CFI R6 load(1, XDATA, add(CFA_XSP16, literal(-24)))
          CFI CFA_SP SP+0
          CFI CFA_XSP16 add(XSP16, 24)
        ; Saved register size: 24
        ; Auto size: 1
        MOV       A,#-0x1
        LCALL     ?ALLOC_XSTACK8
          CFI CFA_XSP16 add(XSP16, 25)
        MOV       ?V8,R2
        MOV       ?V9,R3
//  620   #define MT_AF_INC_MSG_LEN  17
//  621   #define MT_AF_INC_MSG_EXT  10
//  622 
//  623   uint16 dataLen = pMsg->cmd.DataLength;  // Length of the data section in the response packet.
        MOV       A,R2
        ADD       A,#0x1f
        MOV       DPL,A
        CLR       A
        ADDC      A,?V9
        MOV       DPH,A
        MOVX      A,@DPTR
        MOV       ?V0,A
        INC       DPTR
        MOVX      A,@DPTR
        MOV       ?V1,A
//  624   uint16 respLen = MT_AF_INC_MSG_LEN + dataLen;
        MOV       A,?V0
        ADD       A,#0x11
        MOV       R6,A
        CLR       A
        ADDC      A,?V1
        MOV       R7,A
//  625   uint8 cmd = MT_AF_INCOMING_MSG;
        MOV       DPL,?XSP + 0
        MOV       DPH,?XSP + 1
        MOV       A,#-0x7f
        MOVX      @DPTR,A
//  626   uint8 *pRsp, *pTmp;
//  627   mtAfInMsgList_t *pItem = NULL;
        MOV       ?V10,#0x0
        MOV       ?V11,#0x0
//  628 
//  629 #if defined INTER_PAN
//  630   if (StubAPS_InterPan(pMsg->srcAddr.panId, pMsg->srcAddr.endPoint))
//  631   {
//  632     cmd = MT_AF_INCOMING_MSG_EXT;
//  633   }
//  634   else
//  635 #endif
//  636   if ((pMsg->srcAddr.addrMode == afAddr64Bit) ||
//  637       (respLen > (uint16)(MT_RPC_DATA_MAX - MT_AF_INC_MSG_EXT)))
        MOV       A,R2
        ADD       A,#0xe
        MOV       ?V4,A
        CLR       A
        ADDC      A,?V9
        MOV       ?V5,A
        MOV       DPL,?V4
        MOV       DPH,A
        MOVX      A,@DPTR
        XRL       A,#0x3
        JZ        ??MT_AfIncomingMsg_0
        CLR       C
        MOV       A,R6
        SUBB      A,#-0xf
        MOV       A,R7
        SUBB      A,#0x0
        JC        ??MT_AfIncomingMsg_1
//  638   {
//  639     cmd = MT_AF_INCOMING_MSG_EXT;
??MT_AfIncomingMsg_0:
        MOV       DPL,?XSP + 0
        MOV       DPH,?XSP + 1
        MOV       A,#-0x7e
        MOVX      @DPTR,A
//  640   }
//  641 
//  642   if (cmd == MT_AF_INCOMING_MSG_EXT)
//  643   {
//  644     respLen += MT_AF_INC_MSG_EXT;
        MOV       A,R6
        ADD       A,#0xa
        MOV       R6,A
        CLR       A
        ADDC      A,R7
        MOV       R7,A
//  645   }
//  646 
//  647   if (respLen > (uint16)MT_RPC_DATA_MAX)
??MT_AfIncomingMsg_1:
        CLR       C
        MOV       A,R6
        SUBB      A,#-0x5
        MOV       A,R7
        SUBB      A,#0x0
        JC        ??MT_AfIncomingMsg_2
//  648   {
//  649     if ((pItem = (mtAfInMsgList_t *)osal_mem_alloc(sizeof(mtAfInMsgList_t) + dataLen)) == NULL)
        ; Setup parameters for call to function osal_mem_alloc
        MOV       A,?V0
        ADD       A,#0x9
        MOV       R2,A
        CLR       A
        ADDC      A,?V1
        MOV       R3,A
        LCALL     `??osal_mem_alloc::?relay`; Banked call to: osal_mem_alloc
        MOV       ?V10,R2
        MOV       ?V11,R3
        MOV       A,R2
        ORL       A,R3
        JNZ       $+5
        LJMP      ??MT_AfIncomingMsg_3 & 0xFFFF
//  650     {
//  651       return;  // If cannot hold a huge message, cannot give indication at all.
//  652     }
//  653 
//  654     pItem->data = (uint8 *)(pItem+1);
        MOV       A,R2
        ADD       A,#0x9
        MOV       R0,A
        CLR       A
        ADDC      A,?V11
        MOV       R1,A
        MOV       DPL,R2
        MOV       DPH,R3
        INC       DPTR
        INC       DPTR
        LCALL     ?Subroutine33 & 0xFFFF
//  655     respLen -= dataLen;  // Zero data bytes are sent with an over-sized incoming indication.
??CrossCallReturnLabel_71:
        CLR       C
        MOV       A,R6
        SUBB      A,?V0
        MOV       R6,A
        MOV       A,R7
        SUBB      A,?V1
        MOV       R7,A
//  656   }
//  657 
//  658   // Attempt to allocate memory for the response packet.
//  659   if ((pRsp = osal_mem_alloc(respLen)) == NULL)
??MT_AfIncomingMsg_2:
        ; Setup parameters for call to function osal_mem_alloc
        MOV       A,R6
        MOV       R2,A
        MOV       A,R7
        MOV       R3,A
        LCALL     `??osal_mem_alloc::?relay`; Banked call to: osal_mem_alloc
        MOV       ?V12,R2
        MOV       ?V13,R3
        MOV       A,R2
        ORL       A,R3
        JNZ       ??MT_AfIncomingMsg_4
//  660   {
//  661     if (pItem != NULL)
        MOV       A,?V10
        ORL       A,?V11
        JZ        ??MT_AfIncomingMsg_5
//  662     {
//  663       (void)osal_mem_free(pItem);
        ; Setup parameters for call to function osal_mem_free
        MOV       R2,?V10
        MOV       R3,?V11
        LCALL     `??osal_mem_free::?relay`; Banked call to: osal_mem_free
//  664     }
//  665     return;
??MT_AfIncomingMsg_5:
        LJMP      ??MT_AfIncomingMsg_3 & 0xFFFF
//  666   }
//  667   pTmp = pRsp;
//  668 
//  669   /* Group ID */
//  670   *pTmp++ = LO_UINT16(pMsg->groupId);
??MT_AfIncomingMsg_4:
        MOV       A,?V8
        ADD       A,#0x2
        MOV       R0,A
        CLR       A
        ADDC      A,?V9
        MOV       R1,A
        MOV       DPL,R0
        MOV       DPH,A
        LCALL     ?Subroutine14 & 0xFFFF
//  671   *pTmp++ = HI_UINT16(pMsg->groupId);
??CrossCallReturnLabel_15:
        LCALL     ?Subroutine15 & 0xFFFF
??CrossCallReturnLabel_79:
        MOVX      @DPTR,A
//  672 
//  673   /* Cluster ID */
//  674   *pTmp++ = LO_UINT16(pMsg->clusterId);
        MOV       A,?V8
        ADD       A,#0x4
        MOV       R0,A
        CLR       A
        ADDC      A,?V9
        MOV       R1,A
        MOV       DPL,R0
        MOV       DPH,A
        LCALL     ??Subroutine40_0 & 0xFFFF
??CrossCallReturnLabel_78:
        INC       DPTR
        MOVX      @DPTR,A
//  675   *pTmp++ = HI_UINT16(pMsg->clusterId);
        LCALL     ?Subroutine15 & 0xFFFF
??CrossCallReturnLabel_80:
        INC       DPTR
        INC       DPTR
        MOVX      @DPTR,A
//  676 
//  677   if (cmd == MT_AF_INCOMING_MSG_EXT)
        MOV       A,R2
        ADD       A,#0x6
        MOV       R2,A
        CLR       A
        ADDC      A,?V13
        MOV       R3,A
        MOV       A,?V12
        ADD       A,#0x5
        MOV       ?V2,A
        CLR       A
        ADDC      A,?V13
        MOV       ?V3,A
        MOV       A,?V12
        ADD       A,#0x4
        MOV       R4,A
        CLR       A
        ADDC      A,?V13
        MOV       R5,A
        MOV       A,?V8
        ADD       A,#0xf
        MOV       ?V14,A
        CLR       A
        ADDC      A,?V9
        MOV       ?V15,A
        MOV       A,?V8
        ADD       A,#0x6
        MOV       R0,A
        CLR       A
        ADDC      A,?V9
        MOV       R1,A
        MOV       DPL,?XSP + 0
        MOV       DPH,?XSP + 1
        MOVX      A,@DPTR
        XRL       A,#0x82
        JNZ       ??MT_AfIncomingMsg_6
//  678   {
//  679     *pTmp++ = pMsg->srcAddr.addrMode;
        MOV       DPL,?V4
        MOV       DPH,?V5
        LCALL     ?Subroutine16 & 0xFFFF
//  680 
//  681     if (pMsg->srcAddr.addrMode == afAddr64Bit)
??CrossCallReturnLabel_18:
        MOV       DPL,?V4
        MOV       DPH,?V5
        MOVX      A,@DPTR
        XRL       A,#0x3
        JNZ       ??MT_AfIncomingMsg_7
//  682     {
//  683       (void)osal_memcpy(pTmp, pMsg->srcAddr.addr.extAddr, Z_EXTADDR_LEN);
        ; Setup parameters for call to function osal_memcpy
        MOV       ?V4,R0
        MOV       ?V5,R1
        MOV       ?V6,#0x0
        MOV       R0,#?V4
        LCALL     ?PUSH_XSTACK_I_THREE
          CFI CFA_XSP16 add(XSP16, 28)
        MOV       R4,#0x8
        MOV       R5,#0x0
        DEC       R2
        MOV       R3,?V3
        LCALL     ??Subroutine41_0 & 0xFFFF
//  684     }
??CrossCallReturnLabel_85:
        LCALL     ?DEALLOC_XSTACK8
          CFI CFA_XSP16 add(XSP16, 25)
        SJMP      ??CrossCallReturnLabel_16
//  685     else
//  686     {
//  687       pTmp[0] = LO_UINT16(pMsg->srcAddr.addr.shortAddr);
??MT_AfIncomingMsg_7:
        MOV       DPL,R0
        MOV       DPH,R1
        LCALL     ?Subroutine8 & 0xFFFF
//  688       pTmp[1] = HI_UINT16(pMsg->srcAddr.addr.shortAddr);
??CrossCallReturnLabel_6:
        MOV       DPL,R0
        MOV       DPH,R1
        INC       DPTR
        LCALL     ?Subroutine14 & 0xFFFF
//  689     }
//  690     pTmp += Z_EXTADDR_LEN;
//  691 
//  692     *pTmp++ = pMsg->srcAddr.endPoint;
??CrossCallReturnLabel_16:
        MOV       DPL,?V14
        MOV       DPH,?V15
        LCALL     ?Subroutine10 & 0xFFFF
//  693 #if defined INTER_PAN
//  694     *pTmp++ = LO_UINT16(pMsg->srcAddr.panId);
//  695     *pTmp++ = HI_UINT16(pMsg->srcAddr.panId);
//  696 #else
//  697     *pTmp++ = 0;
//  698     *pTmp++ = 0;
//  699 #endif
//  700   }
??CrossCallReturnLabel_11:
        INC       DPTR
        INC       DPTR
        INC       DPTR
        INC       DPTR
        INC       DPTR
        LCALL     ?Subroutine21 & 0xFFFF
??CrossCallReturnLabel_30:
        CLR       A
        LCALL     ?Subroutine21 & 0xFFFF
??CrossCallReturnLabel_31:
        INC       DPTR
        MOVX      @DPTR,A
        MOV       A,?V2
        ADD       A,#0xb
        MOV       ?V2,A
        JNC       ??MT_AfIncomingMsg_8
        INC       ?V3
        SJMP      ??MT_AfIncomingMsg_8
//  701   else
//  702   {
//  703     /* Source Address */
//  704     *pTmp++ = LO_UINT16(pMsg->srcAddr.addr.shortAddr);
??MT_AfIncomingMsg_6:
        MOV       DPL,R0
        MOV       DPH,R1
        LCALL     ?Subroutine16 & 0xFFFF
//  705     *pTmp++ = HI_UINT16(pMsg->srcAddr.addr.shortAddr);
??CrossCallReturnLabel_19:
        MOV       DPL,R0
        MOV       DPH,R1
        INC       DPTR
        LCALL     ?Subroutine8 & 0xFFFF
//  706 
//  707     /* Source EP */
//  708     *pTmp++ = pMsg->srcAddr.endPoint;
??CrossCallReturnLabel_7:
        MOV       DPL,?V14
        MOV       DPH,?V15
        LCALL     ?Subroutine14 & 0xFFFF
//  709   }
??CrossCallReturnLabel_17:
        MOV       A,?V12
        ADD       A,#0x7
        MOV       ?V2,A
        CLR       A
        ADDC      A,?V13
        MOV       ?V3,A
//  710 
//  711   /* Destination EP */
//  712   *pTmp++ = pMsg->endPoint;
??MT_AfIncomingMsg_8:
        MOV       A,?V8
        ADD       A,#0x14
        MOV       DPL,A
        CLR       A
        ADDC      A,?V9
        MOV       DPH,A
        LCALL     ?Subroutine8 & 0xFFFF
//  713 
//  714   /* WasBroadCast */
//  715   *pTmp++ = pMsg->wasBroadcast;
??CrossCallReturnLabel_8:
        MOV       A,?V8
        ADD       A,#0x15
        LCALL     ?Subroutine20 & 0xFFFF
??CrossCallReturnLabel_28:
        MOVX      @DPTR,A
//  716 
//  717   /* LinkQuality */
//  718   *pTmp++ = pMsg->LinkQuality;
        MOV       A,?V8
        ADD       A,#0x16
        LCALL     ?Subroutine20 & 0xFFFF
??CrossCallReturnLabel_29:
        INC       DPTR
        MOVX      @DPTR,A
//  719 
//  720   /* SecurityUse */
//  721   *pTmp++ = pMsg->SecurityUse;
        MOV       A,?V8
        ADD       A,#0x19
        MOV       DPL,A
        CLR       A
        ADDC      A,?V9
        MOV       DPH,A
        LCALL     ?Subroutine10 & 0xFFFF
??CrossCallReturnLabel_12:
        MOVX      @DPTR,A
//  722 
//  723   /* Timestamp */
//  724   *pTmp++ = BREAK_UINT32(pMsg->timestamp, 0);
        MOV       A,?V8
        ADD       A,#0x1a
        MOV       ?V14,A
        CLR       A
        ADDC      A,?V9
        MOV       ?V15,A
        MOV       DPL,?V14
        MOV       DPH,A
        MOV       R0,#?V4
        LCALL     ?L_MOV_X
        MOV       DPL,?V2
        MOV       DPH,?V3
        LCALL     ?Subroutine22 & 0xFFFF
//  725   *pTmp++ = BREAK_UINT32(pMsg->timestamp, 1);
??CrossCallReturnLabel_75:
        LCALL     ?L_MOV_X
        MOV       A,?V5
        MOV       DPL,?V2
        MOV       DPH,?V3
        INC       DPTR
        INC       DPTR
        INC       DPTR
        INC       DPTR
        INC       DPTR
        LCALL     ??Subroutine39_0 & 0xFFFF
//  726   *pTmp++ = BREAK_UINT32(pMsg->timestamp, 2);
??CrossCallReturnLabel_77:
        LCALL     ?L_MOV_X
        MOV       A,#0x10
        MOV       R0,#?V4
        LCALL     ?UL_SHR
        MOV       DPL,?V2
        MOV       DPH,?V3
        INC       DPTR
        INC       DPTR
        LCALL     ?Subroutine22 & 0xFFFF
//  727   *pTmp++ = BREAK_UINT32(pMsg->timestamp, 3);
??CrossCallReturnLabel_76:
        LCALL     ?L_MOV_X
        MOV       A,#0x18
        MOV       R0,#?V4
        LCALL     ?UL_SHR
        MOV       DPL,?V2
        MOV       DPH,?V3
        INC       DPTR
        INC       DPTR
        INC       DPTR
        INC       DPTR
        INC       DPTR
        INC       DPTR
        INC       DPTR
        MOV       A,?V4
        MOVX      @DPTR,A
//  728 
//  729 
//  730   /* Data Length */
//  731   if (cmd == MT_AF_INCOMING_MSG_EXT)
        MOV       A,?V2
        ADD       A,#0xa
        MOV       R0,A
        CLR       A
        ADDC      A,?V3
        MOV       R1,A
        MOV       A,?V2
        ADD       A,#0x9
        MOV       R2,A
        CLR       A
        ADDC      A,?V3
        MOV       R3,A
        MOV       A,?V2
        ADD       A,#0x8
        MOV       R4,A
        CLR       A
        ADDC      A,?V3
        MOV       R5,A
        MOV       DPL,?XSP + 0
        MOV       DPH,?XSP + 1
        MOVX      A,@DPTR
        XRL       A,#0x82
        JNZ       ??MT_AfIncomingMsg_9
//  732   {
//  733     /* Z-Tool apparently takes the last Byte before the data buffer as the dynamic length and
//  734      * ignores the bigger UInt16 length of an EXT incoming message. But no data bytes will be sent
//  735      * with a huge message, so it's necessary to work-around and fake-out Z-Tool with a zero here.
//  736      */
//  737     *pTmp++ = 0;  // TODO - workaround Z-Tool shortcoming; should be: = pMsg->cmd.TransSeqNumber;
        MOV       DPL,R4
        MOV       DPH,R5
        CLR       A
        LCALL     ?Subroutine24 & 0xFFFF
//  738     *pTmp++ = LO_UINT16(dataLen);
??CrossCallReturnLabel_38:
        MOV       A,?V0
        MOVX      @DPTR,A
//  739     *pTmp++ = HI_UINT16(dataLen);
        MOV       DPL,R0
        MOV       DPH,R1
        MOV       A,?V1
        MOVX      @DPTR,A
        MOV       A,?V2
        ADD       A,#0xb
        MOV       ?V2,A
        JNC       ??MT_AfIncomingMsg_10
        INC       ?V3
        SJMP      ??MT_AfIncomingMsg_10
//  740   }
//  741   else
//  742   {
//  743     *pTmp++ = pMsg->cmd.TransSeqNumber;
??MT_AfIncomingMsg_9:
        MOV       A,?V8
        ADD       A,#0x1e
        MOV       DPL,A
        CLR       A
        ADDC      A,?V9
        MOV       DPH,A
        LCALL     ?Subroutine16 & 0xFFFF
//  744     *pTmp++ = dataLen;
??CrossCallReturnLabel_20:
        MOV       DPL,R2
        MOV       DPH,R3
        MOV       A,?V0
        MOVX      @DPTR,A
        MOV       ?V2,R0
        MOV       ?V3,R1
//  745   }
//  746 
//  747   /* Data */
//  748   if (pItem != NULL)
??MT_AfIncomingMsg_10:
        MOV       A,?V8
        ADD       A,#0x21
        MOV       ?V4,A
        CLR       A
        ADDC      A,?V9
        MOV       ?V5,A
        MOV       A,?V10
        ORL       A,?V11
        JZ        ??MT_AfIncomingMsg_11
//  749   {
//  750     // Enqueue the new huge incoming item.
//  751     pItem->next = pMtAfInMsgList;
        LCALL     ?Subroutine30 & 0xFFFF
??CrossCallReturnLabel_90:
        MOV       DPL,?V10
        MOV       DPH,?V11
        LCALL     ?Subroutine33 & 0xFFFF
//  752     pMtAfInMsgList = pItem;
??CrossCallReturnLabel_72:
        MOV       DPTR,#pMtAfInMsgList
        MOV       A,?V10
        MOVX      @DPTR,A
        INC       DPTR
        MOV       A,?V11
        MOVX      @DPTR,A
//  753 
//  754     // Setup to time-out the huge incoming item if host does not MT_AF_DATA_RETRIEVE it.
//  755     pItem->tick = MT_AF_EXEC_CNT;
        MOV       DPL,?V10
        MOV       DPH,A
        INC       DPTR
        INC       DPTR
        INC       DPTR
        INC       DPTR
        INC       DPTR
        INC       DPTR
        INC       DPTR
        INC       DPTR
        LCALL     ?Subroutine12 & 0xFFFF
//  756     if (ZSuccess != osal_start_timerEx(MT_TaskID, MT_AF_EXEC_EVT, MT_AF_EXEC_DLY))
??CrossCallReturnLabel_52:
        JZ        ??CrossCallReturnLabel_27
//  757     {
//  758       (void)osal_set_event(MT_TaskID, MT_AF_EXEC_EVT);
        ; Setup parameters for call to function osal_set_event
        LCALL     ?Subroutine19 & 0xFFFF
//  759     }
//  760 
//  761     pItem->timestamp = pMsg->timestamp;
??CrossCallReturnLabel_27:
        MOV       DPL,?V14
        MOV       DPH,?V15
        LCALL     ?XLOAD_R0123
        MOV       DPL,?V10
        MOV       DPH,?V11
        INC       DPTR
        INC       DPTR
        INC       DPTR
        INC       DPTR
        LCALL     ?XSTORE_R0123
//  762     (void)osal_memcpy(pItem->data, pMsg->cmd.Data, dataLen);
        ; Setup parameters for call to function osal_memcpy
        LCALL     ?Subroutine17 & 0xFFFF
//  763   }
??CrossCallReturnLabel_21:
        LCALL     ?PUSH_XSTACK_I_THREE
          CFI CFA_XSP16 add(XSP16, 28)
        MOV       R4,?V0
        MOV       R5,?V1
        MOV       DPL,?V10
        MOV       DPH,?V11
        INC       DPTR
        INC       DPTR
        LCALL     ?Subroutine31 & 0xFFFF
??CrossCallReturnLabel_46:
        SJMP      ??MT_AfIncomingMsg_12
          CFI CFA_XSP16 add(XSP16, 25)
//  764   else
//  765   {
//  766     (void)osal_memcpy(pTmp, pMsg->cmd.Data, dataLen);
??MT_AfIncomingMsg_11:
        ; Setup parameters for call to function osal_memcpy
        LCALL     ?Subroutine17 & 0xFFFF
//  767   }
??CrossCallReturnLabel_22:
        LCALL     ?PUSH_XSTACK_I_THREE
          CFI CFA_XSP16 add(XSP16, 28)
        MOV       R4,?V0
        MOV       R5,?V1
        MOV       R2,?V2
        MOV       R3,?V3
??MT_AfIncomingMsg_12:
        LCALL     ??Subroutine41_0 & 0xFFFF
??CrossCallReturnLabel_86:
        LCALL     ?DEALLOC_XSTACK8
          CFI CFA_XSP16 add(XSP16, 25)
//  768 
//  769   /* Build and send back the response */
//  770   MT_BuildAndSendZToolResponse(((uint8)MT_RPC_CMD_AREQ|(uint8)MT_RPC_SYS_AF), cmd, respLen, pRsp);
        ; Setup parameters for call to function MT_BuildAndSendZToolResponse
        MOV       R4,?V12
        MOV       R5,?V13
        MOV       A,R6
        MOV       R3,A
        MOV       DPL,?XSP + 0
        MOV       DPH,?XSP + 1
        MOVX      A,@DPTR
        MOV       R2,A
        MOV       R1,#0x44
        LCALL     `??MT_BuildAndSendZToolResponse::?relay`; Banked call to: MT_BuildAndSendZToolResponse
//  771 
//  772   (void)osal_mem_free(pRsp);
        ; Setup parameters for call to function osal_mem_free
        MOV       R2,?V12
        MOV       R3,?V13
        LCALL     `??osal_mem_free::?relay`; Banked call to: osal_mem_free
//  773 }
??MT_AfIncomingMsg_3:
        MOV       A,#0x1
        LCALL     ?DEALLOC_XSTACK8
          CFI CFA_XSP16 add(XSP16, 24)
        MOV       R7,#0x10
        LJMP      ?BANKED_LEAVE_XDATA
          CFI EndBlock cfiBlock72

        RSEG BANKED_CODE:HUGECODE:NOROOT(0)
?Subroutine33:
          CFI Block cfiCond73 Using cfiCommon0
          CFI Function MT_AfExec
          CFI Conditional ??CrossCallReturnLabel_74, ??CrossCallReturnLabel_41
          CFI R6 load(1, XDATA, add(CFA_XSP16, literal(-9)))
          CFI VB load(1, XDATA, add(CFA_XSP16, literal(-8)))
          CFI V0 load(1, XDATA, add(CFA_XSP16, literal(-7)))
          CFI R7 load(1, XDATA, add(CFA_XSP16, literal(-6)))
          CFI ?RET_LOW load(1, XDATA, add(CFA_XSP16, literal(-5)))
          CFI ?RET_HIGH load(1, XDATA, add(CFA_XSP16, literal(-4)))
          CFI ?BRET_EXT load(1, XDATA, add(CFA_XSP16, literal(-3)))
          CFI DPL0 load(1, XDATA, add(CFA_XSP16, literal(-2)))
          CFI DPH0 load(1, XDATA, add(CFA_XSP16, literal(-1)))
          CFI CFA_SP SP+-4
          CFI CFA_XSP16 add(XSP16, 9)
          CFI Block cfiCond74 Using cfiCommon0
          CFI (cfiCond74) Function MT_AfExec
          CFI (cfiCond74) Conditional ??CrossCallReturnLabel_74, ??CrossCallReturnLabel_42
          CFI (cfiCond74) R6 load(1, XDATA, add(CFA_XSP16, literal(-9)))
          CFI (cfiCond74) VB load(1, XDATA, add(CFA_XSP16, literal(-8)))
          CFI (cfiCond74) V0 load(1, XDATA, add(CFA_XSP16, literal(-7)))
          CFI (cfiCond74) R7 load(1, XDATA, add(CFA_XSP16, literal(-6)))
          CFI (cfiCond74) ?RET_LOW load(1, XDATA, add(CFA_XSP16, literal(-5)))
          CFI (cfiCond74) ?RET_HIGH load(1, XDATA, add(CFA_XSP16, literal(-4)))
          CFI (cfiCond74) ?BRET_EXT load(1, XDATA, add(CFA_XSP16, literal(-3)))
          CFI (cfiCond74) DPL0 load(1, XDATA, add(CFA_XSP16, literal(-2)))
          CFI (cfiCond74) DPH0 load(1, XDATA, add(CFA_XSP16, literal(-1)))
          CFI (cfiCond74) CFA_SP SP+-4
          CFI (cfiCond74) CFA_XSP16 add(XSP16, 9)
          CFI Block cfiCond75 Using cfiCommon0
          CFI (cfiCond75) Function MT_AfIncomingMsg
          CFI (cfiCond75) Conditional ??CrossCallReturnLabel_71
          CFI (cfiCond75) R6 load(1, XDATA, add(CFA_XSP16, literal(-24)))
          CFI (cfiCond75) VB load(1, XDATA, add(CFA_XSP16, literal(-23)))
          CFI (cfiCond75) V0 load(1, XDATA, add(CFA_XSP16, literal(-22)))
          CFI (cfiCond75) V1 load(1, XDATA, add(CFA_XSP16, literal(-21)))
          CFI (cfiCond75) V2 load(1, XDATA, add(CFA_XSP16, literal(-20)))
          CFI (cfiCond75) V3 load(1, XDATA, add(CFA_XSP16, literal(-19)))
          CFI (cfiCond75) V4 load(1, XDATA, add(CFA_XSP16, literal(-18)))
          CFI (cfiCond75) V5 load(1, XDATA, add(CFA_XSP16, literal(-17)))
          CFI (cfiCond75) V6 load(1, XDATA, add(CFA_XSP16, literal(-16)))
          CFI (cfiCond75) V7 load(1, XDATA, add(CFA_XSP16, literal(-15)))
          CFI (cfiCond75) V8 load(1, XDATA, add(CFA_XSP16, literal(-14)))
          CFI (cfiCond75) V9 load(1, XDATA, add(CFA_XSP16, literal(-13)))
          CFI (cfiCond75) V10 load(1, XDATA, add(CFA_XSP16, literal(-12)))
          CFI (cfiCond75) V11 load(1, XDATA, add(CFA_XSP16, literal(-11)))
          CFI (cfiCond75) V12 load(1, XDATA, add(CFA_XSP16, literal(-10)))
          CFI (cfiCond75) V13 load(1, XDATA, add(CFA_XSP16, literal(-9)))
          CFI (cfiCond75) V14 load(1, XDATA, add(CFA_XSP16, literal(-8)))
          CFI (cfiCond75) V15 load(1, XDATA, add(CFA_XSP16, literal(-7)))
          CFI (cfiCond75) R7 load(1, XDATA, add(CFA_XSP16, literal(-6)))
          CFI (cfiCond75) ?RET_LOW load(1, XDATA, add(CFA_XSP16, literal(-5)))
          CFI (cfiCond75) ?RET_HIGH load(1, XDATA, add(CFA_XSP16, literal(-4)))
          CFI (cfiCond75) ?BRET_EXT load(1, XDATA, add(CFA_XSP16, literal(-3)))
          CFI (cfiCond75) DPL0 load(1, XDATA, add(CFA_XSP16, literal(-2)))
          CFI (cfiCond75) DPH0 load(1, XDATA, add(CFA_XSP16, literal(-1)))
          CFI (cfiCond75) CFA_SP SP+-2
          CFI (cfiCond75) CFA_XSP16 add(XSP16, 25)
          CFI Block cfiCond76 Using cfiCommon0
          CFI (cfiCond76) Function MT_AfIncomingMsg
          CFI (cfiCond76) Conditional ??CrossCallReturnLabel_72
          CFI (cfiCond76) R6 load(1, XDATA, add(CFA_XSP16, literal(-24)))
          CFI (cfiCond76) VB load(1, XDATA, add(CFA_XSP16, literal(-23)))
          CFI (cfiCond76) V0 load(1, XDATA, add(CFA_XSP16, literal(-22)))
          CFI (cfiCond76) V1 load(1, XDATA, add(CFA_XSP16, literal(-21)))
          CFI (cfiCond76) V2 load(1, XDATA, add(CFA_XSP16, literal(-20)))
          CFI (cfiCond76) V3 load(1, XDATA, add(CFA_XSP16, literal(-19)))
          CFI (cfiCond76) V4 load(1, XDATA, add(CFA_XSP16, literal(-18)))
          CFI (cfiCond76) V5 load(1, XDATA, add(CFA_XSP16, literal(-17)))
          CFI (cfiCond76) V6 load(1, XDATA, add(CFA_XSP16, literal(-16)))
          CFI (cfiCond76) V7 load(1, XDATA, add(CFA_XSP16, literal(-15)))
          CFI (cfiCond76) V8 load(1, XDATA, add(CFA_XSP16, literal(-14)))
          CFI (cfiCond76) V9 load(1, XDATA, add(CFA_XSP16, literal(-13)))
          CFI (cfiCond76) V10 load(1, XDATA, add(CFA_XSP16, literal(-12)))
          CFI (cfiCond76) V11 load(1, XDATA, add(CFA_XSP16, literal(-11)))
          CFI (cfiCond76) V12 load(1, XDATA, add(CFA_XSP16, literal(-10)))
          CFI (cfiCond76) V13 load(1, XDATA, add(CFA_XSP16, literal(-9)))
          CFI (cfiCond76) V14 load(1, XDATA, add(CFA_XSP16, literal(-8)))
          CFI (cfiCond76) V15 load(1, XDATA, add(CFA_XSP16, literal(-7)))
          CFI (cfiCond76) R7 load(1, XDATA, add(CFA_XSP16, literal(-6)))
          CFI (cfiCond76) ?RET_LOW load(1, XDATA, add(CFA_XSP16, literal(-5)))
          CFI (cfiCond76) ?RET_HIGH load(1, XDATA, add(CFA_XSP16, literal(-4)))
          CFI (cfiCond76) ?BRET_EXT load(1, XDATA, add(CFA_XSP16, literal(-3)))
          CFI (cfiCond76) DPL0 load(1, XDATA, add(CFA_XSP16, literal(-2)))
          CFI (cfiCond76) DPH0 load(1, XDATA, add(CFA_XSP16, literal(-1)))
          CFI (cfiCond76) CFA_SP SP+-2
          CFI (cfiCond76) CFA_XSP16 add(XSP16, 25)
          CFI Block cfiCond77 Using cfiCommon0
          CFI (cfiCond77) Function MT_AfDataRetrieve
          CFI (cfiCond77) Conditional ??CrossCallReturnLabel_73
          CFI (cfiCond77) R6 load(1, XDATA, add(CFA_XSP16, literal(-22)))
          CFI (cfiCond77) VB load(1, XDATA, add(CFA_XSP16, literal(-21)))
          CFI (cfiCond77) V0 load(1, XDATA, add(CFA_XSP16, literal(-20)))
          CFI (cfiCond77) V1 load(1, XDATA, add(CFA_XSP16, literal(-19)))
          CFI (cfiCond77) V2 load(1, XDATA, add(CFA_XSP16, literal(-18)))
          CFI (cfiCond77) V3 load(1, XDATA, add(CFA_XSP16, literal(-17)))
          CFI (cfiCond77) V4 load(1, XDATA, add(CFA_XSP16, literal(-16)))
          CFI (cfiCond77) V5 load(1, XDATA, add(CFA_XSP16, literal(-15)))
          CFI (cfiCond77) V6 load(1, XDATA, add(CFA_XSP16, literal(-14)))
          CFI (cfiCond77) V7 load(1, XDATA, add(CFA_XSP16, literal(-13)))
          CFI (cfiCond77) V8 load(1, XDATA, add(CFA_XSP16, literal(-12)))
          CFI (cfiCond77) V9 load(1, XDATA, add(CFA_XSP16, literal(-11)))
          CFI (cfiCond77) V10 load(1, XDATA, add(CFA_XSP16, literal(-10)))
          CFI (cfiCond77) V11 load(1, XDATA, add(CFA_XSP16, literal(-9)))
          CFI (cfiCond77) V12 load(1, XDATA, add(CFA_XSP16, literal(-8)))
          CFI (cfiCond77) V13 load(1, XDATA, add(CFA_XSP16, literal(-7)))
          CFI (cfiCond77) R7 load(1, XDATA, add(CFA_XSP16, literal(-6)))
          CFI (cfiCond77) ?RET_LOW load(1, XDATA, add(CFA_XSP16, literal(-5)))
          CFI (cfiCond77) ?RET_HIGH load(1, XDATA, add(CFA_XSP16, literal(-4)))
          CFI (cfiCond77) ?BRET_EXT load(1, XDATA, add(CFA_XSP16, literal(-3)))
          CFI (cfiCond77) DPL0 load(1, XDATA, add(CFA_XSP16, literal(-2)))
          CFI (cfiCond77) DPH0 load(1, XDATA, add(CFA_XSP16, literal(-1)))
          CFI (cfiCond77) CFA_SP SP+-2
          CFI (cfiCond77) CFA_XSP16 add(XSP16, 22)
          CFI Block cfiPicker78 Using cfiCommon1
          CFI (cfiPicker78) NoFunction
          CFI (cfiPicker78) Picker
        MOV       A,R0
          CFI EndBlock cfiCond73
          CFI EndBlock cfiCond74
          CFI EndBlock cfiCond75
          CFI EndBlock cfiCond76
          CFI EndBlock cfiCond77
          CFI EndBlock cfiPicker78
        REQUIRE ??Subroutine38_0
        ; // Fall through to label ??Subroutine38_0

        RSEG BANKED_CODE:HUGECODE:NOROOT(0)
??Subroutine38_0:
          CFI Block cfiCond79 Using cfiCommon0
          CFI Function MT_AfDataRequest
          CFI Conditional ??CrossCallReturnLabel_69
          CFI R6 load(1, XDATA, add(CFA_XSP16, literal(-21)))
          CFI VB load(1, XDATA, add(CFA_XSP16, literal(-20)))
          CFI V0 load(1, XDATA, add(CFA_XSP16, literal(-19)))
          CFI V1 load(1, XDATA, add(CFA_XSP16, literal(-18)))
          CFI V2 load(1, XDATA, add(CFA_XSP16, literal(-17)))
          CFI V3 load(1, XDATA, add(CFA_XSP16, literal(-16)))
          CFI V4 load(1, XDATA, add(CFA_XSP16, literal(-15)))
          CFI V5 load(1, XDATA, add(CFA_XSP16, literal(-14)))
          CFI V6 load(1, XDATA, add(CFA_XSP16, literal(-13)))
          CFI V7 load(1, XDATA, add(CFA_XSP16, literal(-12)))
          CFI V8 load(1, XDATA, add(CFA_XSP16, literal(-11)))
          CFI V9 load(1, XDATA, add(CFA_XSP16, literal(-10)))
          CFI V10 load(1, XDATA, add(CFA_XSP16, literal(-9)))
          CFI V11 load(1, XDATA, add(CFA_XSP16, literal(-8)))
          CFI V12 load(1, XDATA, add(CFA_XSP16, literal(-7)))
          CFI R7 load(1, XDATA, add(CFA_XSP16, literal(-6)))
          CFI ?RET_LOW load(1, XDATA, add(CFA_XSP16, literal(-5)))
          CFI ?RET_HIGH load(1, XDATA, add(CFA_XSP16, literal(-4)))
          CFI ?BRET_EXT load(1, XDATA, add(CFA_XSP16, literal(-3)))
          CFI DPL0 load(1, XDATA, add(CFA_XSP16, literal(-2)))
          CFI DPH0 load(1, XDATA, add(CFA_XSP16, literal(-1)))
          CFI CFA_SP SP+-2
          CFI CFA_XSP16 add(XSP16, 35)
          CFI Block cfiCond80 Using cfiCommon0
          CFI (cfiCond80) Function MT_AfDataRequest
          CFI (cfiCond80) Conditional ??CrossCallReturnLabel_70
          CFI (cfiCond80) R6 load(1, XDATA, add(CFA_XSP16, literal(-21)))
          CFI (cfiCond80) VB load(1, XDATA, add(CFA_XSP16, literal(-20)))
          CFI (cfiCond80) V0 load(1, XDATA, add(CFA_XSP16, literal(-19)))
          CFI (cfiCond80) V1 load(1, XDATA, add(CFA_XSP16, literal(-18)))
          CFI (cfiCond80) V2 load(1, XDATA, add(CFA_XSP16, literal(-17)))
          CFI (cfiCond80) V3 load(1, XDATA, add(CFA_XSP16, literal(-16)))
          CFI (cfiCond80) V4 load(1, XDATA, add(CFA_XSP16, literal(-15)))
          CFI (cfiCond80) V5 load(1, XDATA, add(CFA_XSP16, literal(-14)))
          CFI (cfiCond80) V6 load(1, XDATA, add(CFA_XSP16, literal(-13)))
          CFI (cfiCond80) V7 load(1, XDATA, add(CFA_XSP16, literal(-12)))
          CFI (cfiCond80) V8 load(1, XDATA, add(CFA_XSP16, literal(-11)))
          CFI (cfiCond80) V9 load(1, XDATA, add(CFA_XSP16, literal(-10)))
          CFI (cfiCond80) V10 load(1, XDATA, add(CFA_XSP16, literal(-9)))
          CFI (cfiCond80) V11 load(1, XDATA, add(CFA_XSP16, literal(-8)))
          CFI (cfiCond80) V12 load(1, XDATA, add(CFA_XSP16, literal(-7)))
          CFI (cfiCond80) R7 load(1, XDATA, add(CFA_XSP16, literal(-6)))
          CFI (cfiCond80) ?RET_LOW load(1, XDATA, add(CFA_XSP16, literal(-5)))
          CFI (cfiCond80) ?RET_HIGH load(1, XDATA, add(CFA_XSP16, literal(-4)))
          CFI (cfiCond80) ?BRET_EXT load(1, XDATA, add(CFA_XSP16, literal(-3)))
          CFI (cfiCond80) DPL0 load(1, XDATA, add(CFA_XSP16, literal(-2)))
          CFI (cfiCond80) DPH0 load(1, XDATA, add(CFA_XSP16, literal(-1)))
          CFI (cfiCond80) CFA_SP SP+-2
          CFI (cfiCond80) CFA_XSP16 add(XSP16, 35)
          CFI Block cfiCond81 Using cfiCommon0
          CFI (cfiCond81) Function MT_AfExec
          CFI (cfiCond81) Conditional ??CrossCallReturnLabel_74, ??CrossCallReturnLabel_41
          CFI (cfiCond81) R6 load(1, XDATA, add(CFA_XSP16, literal(-9)))
          CFI (cfiCond81) VB load(1, XDATA, add(CFA_XSP16, literal(-8)))
          CFI (cfiCond81) V0 load(1, XDATA, add(CFA_XSP16, literal(-7)))
          CFI (cfiCond81) R7 load(1, XDATA, add(CFA_XSP16, literal(-6)))
          CFI (cfiCond81) ?RET_LOW load(1, XDATA, add(CFA_XSP16, literal(-5)))
          CFI (cfiCond81) ?RET_HIGH load(1, XDATA, add(CFA_XSP16, literal(-4)))
          CFI (cfiCond81) ?BRET_EXT load(1, XDATA, add(CFA_XSP16, literal(-3)))
          CFI (cfiCond81) DPL0 load(1, XDATA, add(CFA_XSP16, literal(-2)))
          CFI (cfiCond81) DPH0 load(1, XDATA, add(CFA_XSP16, literal(-1)))
          CFI (cfiCond81) CFA_SP SP+-4
          CFI (cfiCond81) CFA_XSP16 add(XSP16, 9)
          CFI Block cfiCond82 Using cfiCommon0
          CFI (cfiCond82) Function MT_AfExec
          CFI (cfiCond82) Conditional ??CrossCallReturnLabel_74, ??CrossCallReturnLabel_42
          CFI (cfiCond82) R6 load(1, XDATA, add(CFA_XSP16, literal(-9)))
          CFI (cfiCond82) VB load(1, XDATA, add(CFA_XSP16, literal(-8)))
          CFI (cfiCond82) V0 load(1, XDATA, add(CFA_XSP16, literal(-7)))
          CFI (cfiCond82) R7 load(1, XDATA, add(CFA_XSP16, literal(-6)))
          CFI (cfiCond82) ?RET_LOW load(1, XDATA, add(CFA_XSP16, literal(-5)))
          CFI (cfiCond82) ?RET_HIGH load(1, XDATA, add(CFA_XSP16, literal(-4)))
          CFI (cfiCond82) ?BRET_EXT load(1, XDATA, add(CFA_XSP16, literal(-3)))
          CFI (cfiCond82) DPL0 load(1, XDATA, add(CFA_XSP16, literal(-2)))
          CFI (cfiCond82) DPH0 load(1, XDATA, add(CFA_XSP16, literal(-1)))
          CFI (cfiCond82) CFA_SP SP+-4
          CFI (cfiCond82) CFA_XSP16 add(XSP16, 9)
          CFI Block cfiCond83 Using cfiCommon0
          CFI (cfiCond83) Function MT_AfIncomingMsg
          CFI (cfiCond83) Conditional ??CrossCallReturnLabel_71
          CFI (cfiCond83) R6 load(1, XDATA, add(CFA_XSP16, literal(-24)))
          CFI (cfiCond83) VB load(1, XDATA, add(CFA_XSP16, literal(-23)))
          CFI (cfiCond83) V0 load(1, XDATA, add(CFA_XSP16, literal(-22)))
          CFI (cfiCond83) V1 load(1, XDATA, add(CFA_XSP16, literal(-21)))
          CFI (cfiCond83) V2 load(1, XDATA, add(CFA_XSP16, literal(-20)))
          CFI (cfiCond83) V3 load(1, XDATA, add(CFA_XSP16, literal(-19)))
          CFI (cfiCond83) V4 load(1, XDATA, add(CFA_XSP16, literal(-18)))
          CFI (cfiCond83) V5 load(1, XDATA, add(CFA_XSP16, literal(-17)))
          CFI (cfiCond83) V6 load(1, XDATA, add(CFA_XSP16, literal(-16)))
          CFI (cfiCond83) V7 load(1, XDATA, add(CFA_XSP16, literal(-15)))
          CFI (cfiCond83) V8 load(1, XDATA, add(CFA_XSP16, literal(-14)))
          CFI (cfiCond83) V9 load(1, XDATA, add(CFA_XSP16, literal(-13)))
          CFI (cfiCond83) V10 load(1, XDATA, add(CFA_XSP16, literal(-12)))
          CFI (cfiCond83) V11 load(1, XDATA, add(CFA_XSP16, literal(-11)))
          CFI (cfiCond83) V12 load(1, XDATA, add(CFA_XSP16, literal(-10)))
          CFI (cfiCond83) V13 load(1, XDATA, add(CFA_XSP16, literal(-9)))
          CFI (cfiCond83) V14 load(1, XDATA, add(CFA_XSP16, literal(-8)))
          CFI (cfiCond83) V15 load(1, XDATA, add(CFA_XSP16, literal(-7)))
          CFI (cfiCond83) R7 load(1, XDATA, add(CFA_XSP16, literal(-6)))
          CFI (cfiCond83) ?RET_LOW load(1, XDATA, add(CFA_XSP16, literal(-5)))
          CFI (cfiCond83) ?RET_HIGH load(1, XDATA, add(CFA_XSP16, literal(-4)))
          CFI (cfiCond83) ?BRET_EXT load(1, XDATA, add(CFA_XSP16, literal(-3)))
          CFI (cfiCond83) DPL0 load(1, XDATA, add(CFA_XSP16, literal(-2)))
          CFI (cfiCond83) DPH0 load(1, XDATA, add(CFA_XSP16, literal(-1)))
          CFI (cfiCond83) CFA_SP SP+-2
          CFI (cfiCond83) CFA_XSP16 add(XSP16, 25)
          CFI Block cfiCond84 Using cfiCommon0
          CFI (cfiCond84) Function MT_AfIncomingMsg
          CFI (cfiCond84) Conditional ??CrossCallReturnLabel_72
          CFI (cfiCond84) R6 load(1, XDATA, add(CFA_XSP16, literal(-24)))
          CFI (cfiCond84) VB load(1, XDATA, add(CFA_XSP16, literal(-23)))
          CFI (cfiCond84) V0 load(1, XDATA, add(CFA_XSP16, literal(-22)))
          CFI (cfiCond84) V1 load(1, XDATA, add(CFA_XSP16, literal(-21)))
          CFI (cfiCond84) V2 load(1, XDATA, add(CFA_XSP16, literal(-20)))
          CFI (cfiCond84) V3 load(1, XDATA, add(CFA_XSP16, literal(-19)))
          CFI (cfiCond84) V4 load(1, XDATA, add(CFA_XSP16, literal(-18)))
          CFI (cfiCond84) V5 load(1, XDATA, add(CFA_XSP16, literal(-17)))
          CFI (cfiCond84) V6 load(1, XDATA, add(CFA_XSP16, literal(-16)))
          CFI (cfiCond84) V7 load(1, XDATA, add(CFA_XSP16, literal(-15)))
          CFI (cfiCond84) V8 load(1, XDATA, add(CFA_XSP16, literal(-14)))
          CFI (cfiCond84) V9 load(1, XDATA, add(CFA_XSP16, literal(-13)))
          CFI (cfiCond84) V10 load(1, XDATA, add(CFA_XSP16, literal(-12)))
          CFI (cfiCond84) V11 load(1, XDATA, add(CFA_XSP16, literal(-11)))
          CFI (cfiCond84) V12 load(1, XDATA, add(CFA_XSP16, literal(-10)))
          CFI (cfiCond84) V13 load(1, XDATA, add(CFA_XSP16, literal(-9)))
          CFI (cfiCond84) V14 load(1, XDATA, add(CFA_XSP16, literal(-8)))
          CFI (cfiCond84) V15 load(1, XDATA, add(CFA_XSP16, literal(-7)))
          CFI (cfiCond84) R7 load(1, XDATA, add(CFA_XSP16, literal(-6)))
          CFI (cfiCond84) ?RET_LOW load(1, XDATA, add(CFA_XSP16, literal(-5)))
          CFI (cfiCond84) ?RET_HIGH load(1, XDATA, add(CFA_XSP16, literal(-4)))
          CFI (cfiCond84) ?BRET_EXT load(1, XDATA, add(CFA_XSP16, literal(-3)))
          CFI (cfiCond84) DPL0 load(1, XDATA, add(CFA_XSP16, literal(-2)))
          CFI (cfiCond84) DPH0 load(1, XDATA, add(CFA_XSP16, literal(-1)))
          CFI (cfiCond84) CFA_SP SP+-2
          CFI (cfiCond84) CFA_XSP16 add(XSP16, 25)
          CFI Block cfiCond85 Using cfiCommon0
          CFI (cfiCond85) Function MT_AfDataRetrieve
          CFI (cfiCond85) Conditional ??CrossCallReturnLabel_73
          CFI (cfiCond85) R6 load(1, XDATA, add(CFA_XSP16, literal(-22)))
          CFI (cfiCond85) VB load(1, XDATA, add(CFA_XSP16, literal(-21)))
          CFI (cfiCond85) V0 load(1, XDATA, add(CFA_XSP16, literal(-20)))
          CFI (cfiCond85) V1 load(1, XDATA, add(CFA_XSP16, literal(-19)))
          CFI (cfiCond85) V2 load(1, XDATA, add(CFA_XSP16, literal(-18)))
          CFI (cfiCond85) V3 load(1, XDATA, add(CFA_XSP16, literal(-17)))
          CFI (cfiCond85) V4 load(1, XDATA, add(CFA_XSP16, literal(-16)))
          CFI (cfiCond85) V5 load(1, XDATA, add(CFA_XSP16, literal(-15)))
          CFI (cfiCond85) V6 load(1, XDATA, add(CFA_XSP16, literal(-14)))
          CFI (cfiCond85) V7 load(1, XDATA, add(CFA_XSP16, literal(-13)))
          CFI (cfiCond85) V8 load(1, XDATA, add(CFA_XSP16, literal(-12)))
          CFI (cfiCond85) V9 load(1, XDATA, add(CFA_XSP16, literal(-11)))
          CFI (cfiCond85) V10 load(1, XDATA, add(CFA_XSP16, literal(-10)))
          CFI (cfiCond85) V11 load(1, XDATA, add(CFA_XSP16, literal(-9)))
          CFI (cfiCond85) V12 load(1, XDATA, add(CFA_XSP16, literal(-8)))
          CFI (cfiCond85) V13 load(1, XDATA, add(CFA_XSP16, literal(-7)))
          CFI (cfiCond85) R7 load(1, XDATA, add(CFA_XSP16, literal(-6)))
          CFI (cfiCond85) ?RET_LOW load(1, XDATA, add(CFA_XSP16, literal(-5)))
          CFI (cfiCond85) ?RET_HIGH load(1, XDATA, add(CFA_XSP16, literal(-4)))
          CFI (cfiCond85) ?BRET_EXT load(1, XDATA, add(CFA_XSP16, literal(-3)))
          CFI (cfiCond85) DPL0 load(1, XDATA, add(CFA_XSP16, literal(-2)))
          CFI (cfiCond85) DPH0 load(1, XDATA, add(CFA_XSP16, literal(-1)))
          CFI (cfiCond85) CFA_SP SP+-2
          CFI (cfiCond85) CFA_XSP16 add(XSP16, 22)
          CFI Block cfiPicker86 Using cfiCommon1
          CFI (cfiPicker86) NoFunction
          CFI (cfiPicker86) Picker
        MOVX      @DPTR,A
        INC       DPTR
        MOV       A,R1
        MOVX      @DPTR,A
        RET
          CFI EndBlock cfiCond79
          CFI EndBlock cfiCond80
          CFI EndBlock cfiCond81
          CFI EndBlock cfiCond82
          CFI EndBlock cfiCond83
          CFI EndBlock cfiCond84
          CFI EndBlock cfiCond85
          CFI EndBlock cfiPicker86

        RSEG BANKED_CODE:HUGECODE:NOROOT(0)
?Subroutine22:
          CFI Block cfiCond87 Using cfiCommon0
          CFI Function MT_AfIncomingMsg
          CFI Conditional ??CrossCallReturnLabel_75
          CFI R6 load(1, XDATA, add(CFA_XSP16, literal(-24)))
          CFI VB load(1, XDATA, add(CFA_XSP16, literal(-23)))
          CFI V0 load(1, XDATA, add(CFA_XSP16, literal(-22)))
          CFI V1 load(1, XDATA, add(CFA_XSP16, literal(-21)))
          CFI V2 load(1, XDATA, add(CFA_XSP16, literal(-20)))
          CFI V3 load(1, XDATA, add(CFA_XSP16, literal(-19)))
          CFI V4 load(1, XDATA, add(CFA_XSP16, literal(-18)))
          CFI V5 load(1, XDATA, add(CFA_XSP16, literal(-17)))
          CFI V6 load(1, XDATA, add(CFA_XSP16, literal(-16)))
          CFI V7 load(1, XDATA, add(CFA_XSP16, literal(-15)))
          CFI V8 load(1, XDATA, add(CFA_XSP16, literal(-14)))
          CFI V9 load(1, XDATA, add(CFA_XSP16, literal(-13)))
          CFI V10 load(1, XDATA, add(CFA_XSP16, literal(-12)))
          CFI V11 load(1, XDATA, add(CFA_XSP16, literal(-11)))
          CFI V12 load(1, XDATA, add(CFA_XSP16, literal(-10)))
          CFI V13 load(1, XDATA, add(CFA_XSP16, literal(-9)))
          CFI V14 load(1, XDATA, add(CFA_XSP16, literal(-8)))
          CFI V15 load(1, XDATA, add(CFA_XSP16, literal(-7)))
          CFI R7 load(1, XDATA, add(CFA_XSP16, literal(-6)))
          CFI ?RET_LOW load(1, XDATA, add(CFA_XSP16, literal(-5)))
          CFI ?RET_HIGH load(1, XDATA, add(CFA_XSP16, literal(-4)))
          CFI ?BRET_EXT load(1, XDATA, add(CFA_XSP16, literal(-3)))
          CFI DPL0 load(1, XDATA, add(CFA_XSP16, literal(-2)))
          CFI DPH0 load(1, XDATA, add(CFA_XSP16, literal(-1)))
          CFI CFA_SP SP+-2
          CFI CFA_XSP16 add(XSP16, 25)
          CFI Block cfiCond88 Using cfiCommon0
          CFI (cfiCond88) Function MT_AfIncomingMsg
          CFI (cfiCond88) Conditional ??CrossCallReturnLabel_76
          CFI (cfiCond88) R6 load(1, XDATA, add(CFA_XSP16, literal(-24)))
          CFI (cfiCond88) VB load(1, XDATA, add(CFA_XSP16, literal(-23)))
          CFI (cfiCond88) V0 load(1, XDATA, add(CFA_XSP16, literal(-22)))
          CFI (cfiCond88) V1 load(1, XDATA, add(CFA_XSP16, literal(-21)))
          CFI (cfiCond88) V2 load(1, XDATA, add(CFA_XSP16, literal(-20)))
          CFI (cfiCond88) V3 load(1, XDATA, add(CFA_XSP16, literal(-19)))
          CFI (cfiCond88) V4 load(1, XDATA, add(CFA_XSP16, literal(-18)))
          CFI (cfiCond88) V5 load(1, XDATA, add(CFA_XSP16, literal(-17)))
          CFI (cfiCond88) V6 load(1, XDATA, add(CFA_XSP16, literal(-16)))
          CFI (cfiCond88) V7 load(1, XDATA, add(CFA_XSP16, literal(-15)))
          CFI (cfiCond88) V8 load(1, XDATA, add(CFA_XSP16, literal(-14)))
          CFI (cfiCond88) V9 load(1, XDATA, add(CFA_XSP16, literal(-13)))
          CFI (cfiCond88) V10 load(1, XDATA, add(CFA_XSP16, literal(-12)))
          CFI (cfiCond88) V11 load(1, XDATA, add(CFA_XSP16, literal(-11)))
          CFI (cfiCond88) V12 load(1, XDATA, add(CFA_XSP16, literal(-10)))
          CFI (cfiCond88) V13 load(1, XDATA, add(CFA_XSP16, literal(-9)))
          CFI (cfiCond88) V14 load(1, XDATA, add(CFA_XSP16, literal(-8)))
          CFI (cfiCond88) V15 load(1, XDATA, add(CFA_XSP16, literal(-7)))
          CFI (cfiCond88) R7 load(1, XDATA, add(CFA_XSP16, literal(-6)))
          CFI (cfiCond88) ?RET_LOW load(1, XDATA, add(CFA_XSP16, literal(-5)))
          CFI (cfiCond88) ?RET_HIGH load(1, XDATA, add(CFA_XSP16, literal(-4)))
          CFI (cfiCond88) ?BRET_EXT load(1, XDATA, add(CFA_XSP16, literal(-3)))
          CFI (cfiCond88) DPL0 load(1, XDATA, add(CFA_XSP16, literal(-2)))
          CFI (cfiCond88) DPH0 load(1, XDATA, add(CFA_XSP16, literal(-1)))
          CFI (cfiCond88) CFA_SP SP+-2
          CFI (cfiCond88) CFA_XSP16 add(XSP16, 25)
          CFI Block cfiPicker89 Using cfiCommon1
          CFI (cfiPicker89) NoFunction
          CFI (cfiPicker89) Picker
        INC       DPTR
        INC       DPTR
        INC       DPTR
        INC       DPTR
        MOV       A,?V4
          CFI EndBlock cfiCond87
          CFI EndBlock cfiCond88
          CFI EndBlock cfiPicker89
        REQUIRE ??Subroutine39_0
        ; // Fall through to label ??Subroutine39_0

        RSEG BANKED_CODE:HUGECODE:NOROOT(0)
??Subroutine39_0:
          CFI Block cfiCond90 Using cfiCommon0
          CFI Function MT_AfIncomingMsg
          CFI Conditional ??CrossCallReturnLabel_77
          CFI R6 load(1, XDATA, add(CFA_XSP16, literal(-24)))
          CFI VB load(1, XDATA, add(CFA_XSP16, literal(-23)))
          CFI V0 load(1, XDATA, add(CFA_XSP16, literal(-22)))
          CFI V1 load(1, XDATA, add(CFA_XSP16, literal(-21)))
          CFI V2 load(1, XDATA, add(CFA_XSP16, literal(-20)))
          CFI V3 load(1, XDATA, add(CFA_XSP16, literal(-19)))
          CFI V4 load(1, XDATA, add(CFA_XSP16, literal(-18)))
          CFI V5 load(1, XDATA, add(CFA_XSP16, literal(-17)))
          CFI V6 load(1, XDATA, add(CFA_XSP16, literal(-16)))
          CFI V7 load(1, XDATA, add(CFA_XSP16, literal(-15)))
          CFI V8 load(1, XDATA, add(CFA_XSP16, literal(-14)))
          CFI V9 load(1, XDATA, add(CFA_XSP16, literal(-13)))
          CFI V10 load(1, XDATA, add(CFA_XSP16, literal(-12)))
          CFI V11 load(1, XDATA, add(CFA_XSP16, literal(-11)))
          CFI V12 load(1, XDATA, add(CFA_XSP16, literal(-10)))
          CFI V13 load(1, XDATA, add(CFA_XSP16, literal(-9)))
          CFI V14 load(1, XDATA, add(CFA_XSP16, literal(-8)))
          CFI V15 load(1, XDATA, add(CFA_XSP16, literal(-7)))
          CFI R7 load(1, XDATA, add(CFA_XSP16, literal(-6)))
          CFI ?RET_LOW load(1, XDATA, add(CFA_XSP16, literal(-5)))
          CFI ?RET_HIGH load(1, XDATA, add(CFA_XSP16, literal(-4)))
          CFI ?BRET_EXT load(1, XDATA, add(CFA_XSP16, literal(-3)))
          CFI DPL0 load(1, XDATA, add(CFA_XSP16, literal(-2)))
          CFI DPH0 load(1, XDATA, add(CFA_XSP16, literal(-1)))
          CFI CFA_SP SP+-2
          CFI CFA_XSP16 add(XSP16, 25)
          CFI Block cfiCond91 Using cfiCommon0
          CFI (cfiCond91) Function MT_AfIncomingMsg
          CFI (cfiCond91) Conditional ??CrossCallReturnLabel_75
          CFI (cfiCond91) R6 load(1, XDATA, add(CFA_XSP16, literal(-24)))
          CFI (cfiCond91) VB load(1, XDATA, add(CFA_XSP16, literal(-23)))
          CFI (cfiCond91) V0 load(1, XDATA, add(CFA_XSP16, literal(-22)))
          CFI (cfiCond91) V1 load(1, XDATA, add(CFA_XSP16, literal(-21)))
          CFI (cfiCond91) V2 load(1, XDATA, add(CFA_XSP16, literal(-20)))
          CFI (cfiCond91) V3 load(1, XDATA, add(CFA_XSP16, literal(-19)))
          CFI (cfiCond91) V4 load(1, XDATA, add(CFA_XSP16, literal(-18)))
          CFI (cfiCond91) V5 load(1, XDATA, add(CFA_XSP16, literal(-17)))
          CFI (cfiCond91) V6 load(1, XDATA, add(CFA_XSP16, literal(-16)))
          CFI (cfiCond91) V7 load(1, XDATA, add(CFA_XSP16, literal(-15)))
          CFI (cfiCond91) V8 load(1, XDATA, add(CFA_XSP16, literal(-14)))
          CFI (cfiCond91) V9 load(1, XDATA, add(CFA_XSP16, literal(-13)))
          CFI (cfiCond91) V10 load(1, XDATA, add(CFA_XSP16, literal(-12)))
          CFI (cfiCond91) V11 load(1, XDATA, add(CFA_XSP16, literal(-11)))
          CFI (cfiCond91) V12 load(1, XDATA, add(CFA_XSP16, literal(-10)))
          CFI (cfiCond91) V13 load(1, XDATA, add(CFA_XSP16, literal(-9)))
          CFI (cfiCond91) V14 load(1, XDATA, add(CFA_XSP16, literal(-8)))
          CFI (cfiCond91) V15 load(1, XDATA, add(CFA_XSP16, literal(-7)))
          CFI (cfiCond91) R7 load(1, XDATA, add(CFA_XSP16, literal(-6)))
          CFI (cfiCond91) ?RET_LOW load(1, XDATA, add(CFA_XSP16, literal(-5)))
          CFI (cfiCond91) ?RET_HIGH load(1, XDATA, add(CFA_XSP16, literal(-4)))
          CFI (cfiCond91) ?BRET_EXT load(1, XDATA, add(CFA_XSP16, literal(-3)))
          CFI (cfiCond91) DPL0 load(1, XDATA, add(CFA_XSP16, literal(-2)))
          CFI (cfiCond91) DPH0 load(1, XDATA, add(CFA_XSP16, literal(-1)))
          CFI (cfiCond91) CFA_SP SP+-2
          CFI (cfiCond91) CFA_XSP16 add(XSP16, 25)
          CFI Block cfiCond92 Using cfiCommon0
          CFI (cfiCond92) Function MT_AfIncomingMsg
          CFI (cfiCond92) Conditional ??CrossCallReturnLabel_76
          CFI (cfiCond92) R6 load(1, XDATA, add(CFA_XSP16, literal(-24)))
          CFI (cfiCond92) VB load(1, XDATA, add(CFA_XSP16, literal(-23)))
          CFI (cfiCond92) V0 load(1, XDATA, add(CFA_XSP16, literal(-22)))
          CFI (cfiCond92) V1 load(1, XDATA, add(CFA_XSP16, literal(-21)))
          CFI (cfiCond92) V2 load(1, XDATA, add(CFA_XSP16, literal(-20)))
          CFI (cfiCond92) V3 load(1, XDATA, add(CFA_XSP16, literal(-19)))
          CFI (cfiCond92) V4 load(1, XDATA, add(CFA_XSP16, literal(-18)))
          CFI (cfiCond92) V5 load(1, XDATA, add(CFA_XSP16, literal(-17)))
          CFI (cfiCond92) V6 load(1, XDATA, add(CFA_XSP16, literal(-16)))
          CFI (cfiCond92) V7 load(1, XDATA, add(CFA_XSP16, literal(-15)))
          CFI (cfiCond92) V8 load(1, XDATA, add(CFA_XSP16, literal(-14)))
          CFI (cfiCond92) V9 load(1, XDATA, add(CFA_XSP16, literal(-13)))
          CFI (cfiCond92) V10 load(1, XDATA, add(CFA_XSP16, literal(-12)))
          CFI (cfiCond92) V11 load(1, XDATA, add(CFA_XSP16, literal(-11)))
          CFI (cfiCond92) V12 load(1, XDATA, add(CFA_XSP16, literal(-10)))
          CFI (cfiCond92) V13 load(1, XDATA, add(CFA_XSP16, literal(-9)))
          CFI (cfiCond92) V14 load(1, XDATA, add(CFA_XSP16, literal(-8)))
          CFI (cfiCond92) V15 load(1, XDATA, add(CFA_XSP16, literal(-7)))
          CFI (cfiCond92) R7 load(1, XDATA, add(CFA_XSP16, literal(-6)))
          CFI (cfiCond92) ?RET_LOW load(1, XDATA, add(CFA_XSP16, literal(-5)))
          CFI (cfiCond92) ?RET_HIGH load(1, XDATA, add(CFA_XSP16, literal(-4)))
          CFI (cfiCond92) ?BRET_EXT load(1, XDATA, add(CFA_XSP16, literal(-3)))
          CFI (cfiCond92) DPL0 load(1, XDATA, add(CFA_XSP16, literal(-2)))
          CFI (cfiCond92) DPH0 load(1, XDATA, add(CFA_XSP16, literal(-1)))
          CFI (cfiCond92) CFA_SP SP+-2
          CFI (cfiCond92) CFA_XSP16 add(XSP16, 25)
          CFI Block cfiPicker93 Using cfiCommon1
          CFI (cfiPicker93) NoFunction
          CFI (cfiPicker93) Picker
        MOVX      @DPTR,A
        MOV       DPL,?V14
        MOV       DPH,?V15
        MOV       R0,#?V4
        RET
          CFI EndBlock cfiCond90
          CFI EndBlock cfiCond91
          CFI EndBlock cfiCond92
          CFI EndBlock cfiPicker93

        RSEG BANKED_CODE:HUGECODE:NOROOT(0)
?Subroutine21:
          CFI Block cfiCond94 Using cfiCommon0
          CFI Function MT_AfIncomingMsg
          CFI Conditional ??CrossCallReturnLabel_30
          CFI R6 load(1, XDATA, add(CFA_XSP16, literal(-24)))
          CFI VB load(1, XDATA, add(CFA_XSP16, literal(-23)))
          CFI V0 load(1, XDATA, add(CFA_XSP16, literal(-22)))
          CFI V1 load(1, XDATA, add(CFA_XSP16, literal(-21)))
          CFI V2 load(1, XDATA, add(CFA_XSP16, literal(-20)))
          CFI V3 load(1, XDATA, add(CFA_XSP16, literal(-19)))
          CFI V4 load(1, XDATA, add(CFA_XSP16, literal(-18)))
          CFI V5 load(1, XDATA, add(CFA_XSP16, literal(-17)))
          CFI V6 load(1, XDATA, add(CFA_XSP16, literal(-16)))
          CFI V7 load(1, XDATA, add(CFA_XSP16, literal(-15)))
          CFI V8 load(1, XDATA, add(CFA_XSP16, literal(-14)))
          CFI V9 load(1, XDATA, add(CFA_XSP16, literal(-13)))
          CFI V10 load(1, XDATA, add(CFA_XSP16, literal(-12)))
          CFI V11 load(1, XDATA, add(CFA_XSP16, literal(-11)))
          CFI V12 load(1, XDATA, add(CFA_XSP16, literal(-10)))
          CFI V13 load(1, XDATA, add(CFA_XSP16, literal(-9)))
          CFI V14 load(1, XDATA, add(CFA_XSP16, literal(-8)))
          CFI V15 load(1, XDATA, add(CFA_XSP16, literal(-7)))
          CFI R7 load(1, XDATA, add(CFA_XSP16, literal(-6)))
          CFI ?RET_LOW load(1, XDATA, add(CFA_XSP16, literal(-5)))
          CFI ?RET_HIGH load(1, XDATA, add(CFA_XSP16, literal(-4)))
          CFI ?BRET_EXT load(1, XDATA, add(CFA_XSP16, literal(-3)))
          CFI DPL0 load(1, XDATA, add(CFA_XSP16, literal(-2)))
          CFI DPH0 load(1, XDATA, add(CFA_XSP16, literal(-1)))
          CFI CFA_SP SP+-2
          CFI CFA_XSP16 add(XSP16, 25)
          CFI Block cfiCond95 Using cfiCommon0
          CFI (cfiCond95) Function MT_AfIncomingMsg
          CFI (cfiCond95) Conditional ??CrossCallReturnLabel_31
          CFI (cfiCond95) R6 load(1, XDATA, add(CFA_XSP16, literal(-24)))
          CFI (cfiCond95) VB load(1, XDATA, add(CFA_XSP16, literal(-23)))
          CFI (cfiCond95) V0 load(1, XDATA, add(CFA_XSP16, literal(-22)))
          CFI (cfiCond95) V1 load(1, XDATA, add(CFA_XSP16, literal(-21)))
          CFI (cfiCond95) V2 load(1, XDATA, add(CFA_XSP16, literal(-20)))
          CFI (cfiCond95) V3 load(1, XDATA, add(CFA_XSP16, literal(-19)))
          CFI (cfiCond95) V4 load(1, XDATA, add(CFA_XSP16, literal(-18)))
          CFI (cfiCond95) V5 load(1, XDATA, add(CFA_XSP16, literal(-17)))
          CFI (cfiCond95) V6 load(1, XDATA, add(CFA_XSP16, literal(-16)))
          CFI (cfiCond95) V7 load(1, XDATA, add(CFA_XSP16, literal(-15)))
          CFI (cfiCond95) V8 load(1, XDATA, add(CFA_XSP16, literal(-14)))
          CFI (cfiCond95) V9 load(1, XDATA, add(CFA_XSP16, literal(-13)))
          CFI (cfiCond95) V10 load(1, XDATA, add(CFA_XSP16, literal(-12)))
          CFI (cfiCond95) V11 load(1, XDATA, add(CFA_XSP16, literal(-11)))
          CFI (cfiCond95) V12 load(1, XDATA, add(CFA_XSP16, literal(-10)))
          CFI (cfiCond95) V13 load(1, XDATA, add(CFA_XSP16, literal(-9)))
          CFI (cfiCond95) V14 load(1, XDATA, add(CFA_XSP16, literal(-8)))
          CFI (cfiCond95) V15 load(1, XDATA, add(CFA_XSP16, literal(-7)))
          CFI (cfiCond95) R7 load(1, XDATA, add(CFA_XSP16, literal(-6)))
          CFI (cfiCond95) ?RET_LOW load(1, XDATA, add(CFA_XSP16, literal(-5)))
          CFI (cfiCond95) ?RET_HIGH load(1, XDATA, add(CFA_XSP16, literal(-4)))
          CFI (cfiCond95) ?BRET_EXT load(1, XDATA, add(CFA_XSP16, literal(-3)))
          CFI (cfiCond95) DPL0 load(1, XDATA, add(CFA_XSP16, literal(-2)))
          CFI (cfiCond95) DPH0 load(1, XDATA, add(CFA_XSP16, literal(-1)))
          CFI (cfiCond95) CFA_SP SP+-2
          CFI (cfiCond95) CFA_XSP16 add(XSP16, 25)
          CFI Block cfiPicker96 Using cfiCommon1
          CFI (cfiPicker96) NoFunction
          CFI (cfiPicker96) Picker
        MOVX      @DPTR,A
        MOV       DPL,?V2
        MOV       DPH,?V3
        INC       DPTR
        INC       DPTR
        INC       DPTR
        INC       DPTR
        INC       DPTR
        INC       DPTR
        INC       DPTR
        INC       DPTR
        INC       DPTR
        RET
          CFI EndBlock cfiCond94
          CFI EndBlock cfiCond95
          CFI EndBlock cfiPicker96

        RSEG BANKED_CODE:HUGECODE:NOROOT(0)
?Subroutine20:
          CFI Block cfiCond97 Using cfiCommon0
          CFI Function MT_AfIncomingMsg
          CFI Conditional ??CrossCallReturnLabel_28
          CFI R6 load(1, XDATA, add(CFA_XSP16, literal(-24)))
          CFI VB load(1, XDATA, add(CFA_XSP16, literal(-23)))
          CFI V0 load(1, XDATA, add(CFA_XSP16, literal(-22)))
          CFI V1 load(1, XDATA, add(CFA_XSP16, literal(-21)))
          CFI V2 load(1, XDATA, add(CFA_XSP16, literal(-20)))
          CFI V3 load(1, XDATA, add(CFA_XSP16, literal(-19)))
          CFI V4 load(1, XDATA, add(CFA_XSP16, literal(-18)))
          CFI V5 load(1, XDATA, add(CFA_XSP16, literal(-17)))
          CFI V6 load(1, XDATA, add(CFA_XSP16, literal(-16)))
          CFI V7 load(1, XDATA, add(CFA_XSP16, literal(-15)))
          CFI V8 load(1, XDATA, add(CFA_XSP16, literal(-14)))
          CFI V9 load(1, XDATA, add(CFA_XSP16, literal(-13)))
          CFI V10 load(1, XDATA, add(CFA_XSP16, literal(-12)))
          CFI V11 load(1, XDATA, add(CFA_XSP16, literal(-11)))
          CFI V12 load(1, XDATA, add(CFA_XSP16, literal(-10)))
          CFI V13 load(1, XDATA, add(CFA_XSP16, literal(-9)))
          CFI V14 load(1, XDATA, add(CFA_XSP16, literal(-8)))
          CFI V15 load(1, XDATA, add(CFA_XSP16, literal(-7)))
          CFI R7 load(1, XDATA, add(CFA_XSP16, literal(-6)))
          CFI ?RET_LOW load(1, XDATA, add(CFA_XSP16, literal(-5)))
          CFI ?RET_HIGH load(1, XDATA, add(CFA_XSP16, literal(-4)))
          CFI ?BRET_EXT load(1, XDATA, add(CFA_XSP16, literal(-3)))
          CFI DPL0 load(1, XDATA, add(CFA_XSP16, literal(-2)))
          CFI DPH0 load(1, XDATA, add(CFA_XSP16, literal(-1)))
          CFI CFA_SP SP+-2
          CFI CFA_XSP16 add(XSP16, 25)
          CFI Block cfiCond98 Using cfiCommon0
          CFI (cfiCond98) Function MT_AfIncomingMsg
          CFI (cfiCond98) Conditional ??CrossCallReturnLabel_29
          CFI (cfiCond98) R6 load(1, XDATA, add(CFA_XSP16, literal(-24)))
          CFI (cfiCond98) VB load(1, XDATA, add(CFA_XSP16, literal(-23)))
          CFI (cfiCond98) V0 load(1, XDATA, add(CFA_XSP16, literal(-22)))
          CFI (cfiCond98) V1 load(1, XDATA, add(CFA_XSP16, literal(-21)))
          CFI (cfiCond98) V2 load(1, XDATA, add(CFA_XSP16, literal(-20)))
          CFI (cfiCond98) V3 load(1, XDATA, add(CFA_XSP16, literal(-19)))
          CFI (cfiCond98) V4 load(1, XDATA, add(CFA_XSP16, literal(-18)))
          CFI (cfiCond98) V5 load(1, XDATA, add(CFA_XSP16, literal(-17)))
          CFI (cfiCond98) V6 load(1, XDATA, add(CFA_XSP16, literal(-16)))
          CFI (cfiCond98) V7 load(1, XDATA, add(CFA_XSP16, literal(-15)))
          CFI (cfiCond98) V8 load(1, XDATA, add(CFA_XSP16, literal(-14)))
          CFI (cfiCond98) V9 load(1, XDATA, add(CFA_XSP16, literal(-13)))
          CFI (cfiCond98) V10 load(1, XDATA, add(CFA_XSP16, literal(-12)))
          CFI (cfiCond98) V11 load(1, XDATA, add(CFA_XSP16, literal(-11)))
          CFI (cfiCond98) V12 load(1, XDATA, add(CFA_XSP16, literal(-10)))
          CFI (cfiCond98) V13 load(1, XDATA, add(CFA_XSP16, literal(-9)))
          CFI (cfiCond98) V14 load(1, XDATA, add(CFA_XSP16, literal(-8)))
          CFI (cfiCond98) V15 load(1, XDATA, add(CFA_XSP16, literal(-7)))
          CFI (cfiCond98) R7 load(1, XDATA, add(CFA_XSP16, literal(-6)))
          CFI (cfiCond98) ?RET_LOW load(1, XDATA, add(CFA_XSP16, literal(-5)))
          CFI (cfiCond98) ?RET_HIGH load(1, XDATA, add(CFA_XSP16, literal(-4)))
          CFI (cfiCond98) ?BRET_EXT load(1, XDATA, add(CFA_XSP16, literal(-3)))
          CFI (cfiCond98) DPL0 load(1, XDATA, add(CFA_XSP16, literal(-2)))
          CFI (cfiCond98) DPH0 load(1, XDATA, add(CFA_XSP16, literal(-1)))
          CFI (cfiCond98) CFA_SP SP+-2
          CFI (cfiCond98) CFA_XSP16 add(XSP16, 25)
          CFI Block cfiPicker99 Using cfiCommon1
          CFI (cfiPicker99) NoFunction
          CFI (cfiPicker99) Picker
        MOV       DPL,A
        CLR       A
        ADDC      A,?V9
        MOV       DPH,A
        LCALL     ?Subroutine32 & 0xFFFF
??CrossCallReturnLabel_50:
        RET
          CFI EndBlock cfiCond97
          CFI EndBlock cfiCond98
          CFI EndBlock cfiPicker99

        RSEG BANKED_CODE:HUGECODE:NOROOT(0)
?Subroutine32:
          CFI Block cfiCond100 Using cfiCommon0
          CFI Function MT_AfIncomingMsg
          CFI Conditional ??CrossCallReturnLabel_50, ??CrossCallReturnLabel_28
          CFI R6 load(1, XDATA, add(CFA_XSP16, literal(-24)))
          CFI VB load(1, XDATA, add(CFA_XSP16, literal(-23)))
          CFI V0 load(1, XDATA, add(CFA_XSP16, literal(-22)))
          CFI V1 load(1, XDATA, add(CFA_XSP16, literal(-21)))
          CFI V2 load(1, XDATA, add(CFA_XSP16, literal(-20)))
          CFI V3 load(1, XDATA, add(CFA_XSP16, literal(-19)))
          CFI V4 load(1, XDATA, add(CFA_XSP16, literal(-18)))
          CFI V5 load(1, XDATA, add(CFA_XSP16, literal(-17)))
          CFI V6 load(1, XDATA, add(CFA_XSP16, literal(-16)))
          CFI V7 load(1, XDATA, add(CFA_XSP16, literal(-15)))
          CFI V8 load(1, XDATA, add(CFA_XSP16, literal(-14)))
          CFI V9 load(1, XDATA, add(CFA_XSP16, literal(-13)))
          CFI V10 load(1, XDATA, add(CFA_XSP16, literal(-12)))
          CFI V11 load(1, XDATA, add(CFA_XSP16, literal(-11)))
          CFI V12 load(1, XDATA, add(CFA_XSP16, literal(-10)))
          CFI V13 load(1, XDATA, add(CFA_XSP16, literal(-9)))
          CFI V14 load(1, XDATA, add(CFA_XSP16, literal(-8)))
          CFI V15 load(1, XDATA, add(CFA_XSP16, literal(-7)))
          CFI R7 load(1, XDATA, add(CFA_XSP16, literal(-6)))
          CFI ?RET_LOW load(1, XDATA, add(CFA_XSP16, literal(-5)))
          CFI ?RET_HIGH load(1, XDATA, add(CFA_XSP16, literal(-4)))
          CFI ?BRET_EXT load(1, XDATA, add(CFA_XSP16, literal(-3)))
          CFI DPL0 load(1, XDATA, add(CFA_XSP16, literal(-2)))
          CFI DPH0 load(1, XDATA, add(CFA_XSP16, literal(-1)))
          CFI CFA_SP SP+-4
          CFI CFA_XSP16 add(XSP16, 25)
          CFI Block cfiCond101 Using cfiCommon0
          CFI (cfiCond101) Function MT_AfIncomingMsg
          CFI (cfiCond101) Conditional ??CrossCallReturnLabel_50, ??CrossCallReturnLabel_29
          CFI (cfiCond101) R6 load(1, XDATA, add(CFA_XSP16, literal(-24)))
          CFI (cfiCond101) VB load(1, XDATA, add(CFA_XSP16, literal(-23)))
          CFI (cfiCond101) V0 load(1, XDATA, add(CFA_XSP16, literal(-22)))
          CFI (cfiCond101) V1 load(1, XDATA, add(CFA_XSP16, literal(-21)))
          CFI (cfiCond101) V2 load(1, XDATA, add(CFA_XSP16, literal(-20)))
          CFI (cfiCond101) V3 load(1, XDATA, add(CFA_XSP16, literal(-19)))
          CFI (cfiCond101) V4 load(1, XDATA, add(CFA_XSP16, literal(-18)))
          CFI (cfiCond101) V5 load(1, XDATA, add(CFA_XSP16, literal(-17)))
          CFI (cfiCond101) V6 load(1, XDATA, add(CFA_XSP16, literal(-16)))
          CFI (cfiCond101) V7 load(1, XDATA, add(CFA_XSP16, literal(-15)))
          CFI (cfiCond101) V8 load(1, XDATA, add(CFA_XSP16, literal(-14)))
          CFI (cfiCond101) V9 load(1, XDATA, add(CFA_XSP16, literal(-13)))
          CFI (cfiCond101) V10 load(1, XDATA, add(CFA_XSP16, literal(-12)))
          CFI (cfiCond101) V11 load(1, XDATA, add(CFA_XSP16, literal(-11)))
          CFI (cfiCond101) V12 load(1, XDATA, add(CFA_XSP16, literal(-10)))
          CFI (cfiCond101) V13 load(1, XDATA, add(CFA_XSP16, literal(-9)))
          CFI (cfiCond101) V14 load(1, XDATA, add(CFA_XSP16, literal(-8)))
          CFI (cfiCond101) V15 load(1, XDATA, add(CFA_XSP16, literal(-7)))
          CFI (cfiCond101) R7 load(1, XDATA, add(CFA_XSP16, literal(-6)))
          CFI (cfiCond101) ?RET_LOW load(1, XDATA, add(CFA_XSP16, literal(-5)))
          CFI (cfiCond101) ?RET_HIGH load(1, XDATA, add(CFA_XSP16, literal(-4)))
          CFI (cfiCond101) ?BRET_EXT load(1, XDATA, add(CFA_XSP16, literal(-3)))
          CFI (cfiCond101) DPL0 load(1, XDATA, add(CFA_XSP16, literal(-2)))
          CFI (cfiCond101) DPH0 load(1, XDATA, add(CFA_XSP16, literal(-1)))
          CFI (cfiCond101) CFA_SP SP+-4
          CFI (cfiCond101) CFA_XSP16 add(XSP16, 25)
          CFI Block cfiCond102 Using cfiCommon0
          CFI (cfiCond102) Function MT_AfIncomingMsg
          CFI (cfiCond102) Conditional ??CrossCallReturnLabel_49, ??CrossCallReturnLabel_11
          CFI (cfiCond102) R6 load(1, XDATA, add(CFA_XSP16, literal(-24)))
          CFI (cfiCond102) VB load(1, XDATA, add(CFA_XSP16, literal(-23)))
          CFI (cfiCond102) V0 load(1, XDATA, add(CFA_XSP16, literal(-22)))
          CFI (cfiCond102) V1 load(1, XDATA, add(CFA_XSP16, literal(-21)))
          CFI (cfiCond102) V2 load(1, XDATA, add(CFA_XSP16, literal(-20)))
          CFI (cfiCond102) V3 load(1, XDATA, add(CFA_XSP16, literal(-19)))
          CFI (cfiCond102) V4 load(1, XDATA, add(CFA_XSP16, literal(-18)))
          CFI (cfiCond102) V5 load(1, XDATA, add(CFA_XSP16, literal(-17)))
          CFI (cfiCond102) V6 load(1, XDATA, add(CFA_XSP16, literal(-16)))
          CFI (cfiCond102) V7 load(1, XDATA, add(CFA_XSP16, literal(-15)))
          CFI (cfiCond102) V8 load(1, XDATA, add(CFA_XSP16, literal(-14)))
          CFI (cfiCond102) V9 load(1, XDATA, add(CFA_XSP16, literal(-13)))
          CFI (cfiCond102) V10 load(1, XDATA, add(CFA_XSP16, literal(-12)))
          CFI (cfiCond102) V11 load(1, XDATA, add(CFA_XSP16, literal(-11)))
          CFI (cfiCond102) V12 load(1, XDATA, add(CFA_XSP16, literal(-10)))
          CFI (cfiCond102) V13 load(1, XDATA, add(CFA_XSP16, literal(-9)))
          CFI (cfiCond102) V14 load(1, XDATA, add(CFA_XSP16, literal(-8)))
          CFI (cfiCond102) V15 load(1, XDATA, add(CFA_XSP16, literal(-7)))
          CFI (cfiCond102) R7 load(1, XDATA, add(CFA_XSP16, literal(-6)))
          CFI (cfiCond102) ?RET_LOW load(1, XDATA, add(CFA_XSP16, literal(-5)))
          CFI (cfiCond102) ?RET_HIGH load(1, XDATA, add(CFA_XSP16, literal(-4)))
          CFI (cfiCond102) ?BRET_EXT load(1, XDATA, add(CFA_XSP16, literal(-3)))
          CFI (cfiCond102) DPL0 load(1, XDATA, add(CFA_XSP16, literal(-2)))
          CFI (cfiCond102) DPH0 load(1, XDATA, add(CFA_XSP16, literal(-1)))
          CFI (cfiCond102) CFA_SP SP+-4
          CFI (cfiCond102) CFA_XSP16 add(XSP16, 25)
          CFI Block cfiCond103 Using cfiCommon0
          CFI (cfiCond103) Function MT_AfIncomingMsg
          CFI (cfiCond103) Conditional ??CrossCallReturnLabel_49, ??CrossCallReturnLabel_12
          CFI (cfiCond103) R6 load(1, XDATA, add(CFA_XSP16, literal(-24)))
          CFI (cfiCond103) VB load(1, XDATA, add(CFA_XSP16, literal(-23)))
          CFI (cfiCond103) V0 load(1, XDATA, add(CFA_XSP16, literal(-22)))
          CFI (cfiCond103) V1 load(1, XDATA, add(CFA_XSP16, literal(-21)))
          CFI (cfiCond103) V2 load(1, XDATA, add(CFA_XSP16, literal(-20)))
          CFI (cfiCond103) V3 load(1, XDATA, add(CFA_XSP16, literal(-19)))
          CFI (cfiCond103) V4 load(1, XDATA, add(CFA_XSP16, literal(-18)))
          CFI (cfiCond103) V5 load(1, XDATA, add(CFA_XSP16, literal(-17)))
          CFI (cfiCond103) V6 load(1, XDATA, add(CFA_XSP16, literal(-16)))
          CFI (cfiCond103) V7 load(1, XDATA, add(CFA_XSP16, literal(-15)))
          CFI (cfiCond103) V8 load(1, XDATA, add(CFA_XSP16, literal(-14)))
          CFI (cfiCond103) V9 load(1, XDATA, add(CFA_XSP16, literal(-13)))
          CFI (cfiCond103) V10 load(1, XDATA, add(CFA_XSP16, literal(-12)))
          CFI (cfiCond103) V11 load(1, XDATA, add(CFA_XSP16, literal(-11)))
          CFI (cfiCond103) V12 load(1, XDATA, add(CFA_XSP16, literal(-10)))
          CFI (cfiCond103) V13 load(1, XDATA, add(CFA_XSP16, literal(-9)))
          CFI (cfiCond103) V14 load(1, XDATA, add(CFA_XSP16, literal(-8)))
          CFI (cfiCond103) V15 load(1, XDATA, add(CFA_XSP16, literal(-7)))
          CFI (cfiCond103) R7 load(1, XDATA, add(CFA_XSP16, literal(-6)))
          CFI (cfiCond103) ?RET_LOW load(1, XDATA, add(CFA_XSP16, literal(-5)))
          CFI (cfiCond103) ?RET_HIGH load(1, XDATA, add(CFA_XSP16, literal(-4)))
          CFI (cfiCond103) ?BRET_EXT load(1, XDATA, add(CFA_XSP16, literal(-3)))
          CFI (cfiCond103) DPL0 load(1, XDATA, add(CFA_XSP16, literal(-2)))
          CFI (cfiCond103) DPH0 load(1, XDATA, add(CFA_XSP16, literal(-1)))
          CFI (cfiCond103) CFA_SP SP+-4
          CFI (cfiCond103) CFA_XSP16 add(XSP16, 25)
          CFI Block cfiPicker104 Using cfiCommon1
          CFI (cfiPicker104) NoFunction
          CFI (cfiPicker104) Picker
        MOVX      A,@DPTR
        MOV       DPL,?V2
        MOV       DPH,?V3
        INC       DPTR
        RET
          CFI EndBlock cfiCond100
          CFI EndBlock cfiCond101
          CFI EndBlock cfiCond102
          CFI EndBlock cfiCond103
          CFI EndBlock cfiPicker104

        RSEG BANKED_CODE:HUGECODE:NOROOT(0)
?Subroutine17:
          CFI Block cfiCond105 Using cfiCommon0
          CFI Function MT_AfIncomingMsg
          CFI Conditional ??CrossCallReturnLabel_21
          CFI R6 load(1, XDATA, add(CFA_XSP16, literal(-24)))
          CFI VB load(1, XDATA, add(CFA_XSP16, literal(-23)))
          CFI V0 load(1, XDATA, add(CFA_XSP16, literal(-22)))
          CFI V1 load(1, XDATA, add(CFA_XSP16, literal(-21)))
          CFI V2 load(1, XDATA, add(CFA_XSP16, literal(-20)))
          CFI V3 load(1, XDATA, add(CFA_XSP16, literal(-19)))
          CFI V4 load(1, XDATA, add(CFA_XSP16, literal(-18)))
          CFI V5 load(1, XDATA, add(CFA_XSP16, literal(-17)))
          CFI V6 load(1, XDATA, add(CFA_XSP16, literal(-16)))
          CFI V7 load(1, XDATA, add(CFA_XSP16, literal(-15)))
          CFI V8 load(1, XDATA, add(CFA_XSP16, literal(-14)))
          CFI V9 load(1, XDATA, add(CFA_XSP16, literal(-13)))
          CFI V10 load(1, XDATA, add(CFA_XSP16, literal(-12)))
          CFI V11 load(1, XDATA, add(CFA_XSP16, literal(-11)))
          CFI V12 load(1, XDATA, add(CFA_XSP16, literal(-10)))
          CFI V13 load(1, XDATA, add(CFA_XSP16, literal(-9)))
          CFI V14 load(1, XDATA, add(CFA_XSP16, literal(-8)))
